
fib.rv:     file format elf32-littleriscv


Disassembly of section .text:

00002000 <_start>:
    2000:	00080137          	lui	sp,0x80
    2004:	004000ef          	jal	2008 <main>

00002008 <main>:
    2008:	fe010113          	addi	sp,sp,-32 # 7ffe0 <x+0x7dea8>
    200c:	00112e23          	sw	ra,28(sp)
    2010:	00812c23          	sw	s0,24(sp)
    2014:	02010413          	addi	s0,sp,32
    2018:	00000797          	auipc	a5,0x0
    201c:	1147a783          	lw	a5,276(a5) # 212c <_GLOBAL_OFFSET_TABLE_+0x4>
    2020:	0007a023          	sw	zero,0(a5)
    2024:	00000797          	auipc	a5,0x0
    2028:	1087a783          	lw	a5,264(a5) # 212c <_GLOBAL_OFFSET_TABLE_+0x4>
    202c:	00100713          	li	a4,1
    2030:	00e7a223          	sw	a4,4(a5)
    2034:	00200793          	li	a5,2
    2038:	fef42623          	sw	a5,-20(s0)
    203c:	0640006f          	j	20a0 <main+0x98>
    2040:	fec42783          	lw	a5,-20(s0)
    2044:	fff78793          	addi	a5,a5,-1
    2048:	00000717          	auipc	a4,0x0
    204c:	0e472703          	lw	a4,228(a4) # 212c <_GLOBAL_OFFSET_TABLE_+0x4>
    2050:	00279793          	slli	a5,a5,0x2
    2054:	00f707b3          	add	a5,a4,a5
    2058:	0007a703          	lw	a4,0(a5)
    205c:	fec42783          	lw	a5,-20(s0)
    2060:	ffe78793          	addi	a5,a5,-2
    2064:	00000697          	auipc	a3,0x0
    2068:	0c86a683          	lw	a3,200(a3) # 212c <_GLOBAL_OFFSET_TABLE_+0x4>
    206c:	00279793          	slli	a5,a5,0x2
    2070:	00f687b3          	add	a5,a3,a5
    2074:	0007a783          	lw	a5,0(a5)
    2078:	00f70733          	add	a4,a4,a5
    207c:	00000697          	auipc	a3,0x0
    2080:	0b06a683          	lw	a3,176(a3) # 212c <_GLOBAL_OFFSET_TABLE_+0x4>
    2084:	fec42783          	lw	a5,-20(s0)
    2088:	00279793          	slli	a5,a5,0x2
    208c:	00f687b3          	add	a5,a3,a5
    2090:	00e7a023          	sw	a4,0(a5)
    2094:	fec42783          	lw	a5,-20(s0)
    2098:	00178793          	addi	a5,a5,1
    209c:	fef42623          	sw	a5,-20(s0)
    20a0:	fec42703          	lw	a4,-20(s0)
    20a4:	09500793          	li	a5,149
    20a8:	f8e7dce3          	ble	a4,a5,2040 <main+0x38>
    20ac:	00000797          	auipc	a5,0x0
    20b0:	0807a783          	lw	a5,128(a5) # 212c <_GLOBAL_OFFSET_TABLE_+0x4>
    20b4:	08c7a783          	lw	a5,140(a5)
    20b8:	00078713          	mv	a4,a5
    20bc:	008cd7b7          	lui	a5,0x8cd
    20c0:	cc978593          	addi	a1,a5,-823 # 8cccc9 <x+0x8cab91>
    20c4:	00070513          	mv	a0,a4
    20c8:	028000ef          	jal	20f0 <assert_equals>
    20cc:	00050793          	mv	a5,a0
    20d0:	00078863          	beqz	a5,20e0 <main+0xd8>
    20d4:	00100793          	li	a5,1
    20d8:	51e79073          	csrw	0x51e,a5
    20dc:	00c0006f          	j	20e8 <main+0xe0>
    20e0:	00200793          	li	a5,2
    20e4:	51e79073          	csrw	0x51e,a5
    20e8:	00000013          	nop
    20ec:	ffdff06f          	j	20e8 <main+0xe0>

000020f0 <assert_equals>:
    20f0:	fe010113          	addi	sp,sp,-32
    20f4:	00812e23          	sw	s0,28(sp)
    20f8:	02010413          	addi	s0,sp,32
    20fc:	fea42623          	sw	a0,-20(s0)
    2100:	feb42423          	sw	a1,-24(s0)
    2104:	fec42703          	lw	a4,-20(s0)
    2108:	fe842783          	lw	a5,-24(s0)
    210c:	40f707b3          	sub	a5,a4,a5
    2110:	0017b793          	seqz	a5,a5
    2114:	0ff7f793          	andi	a5,a5,255
    2118:	00078513          	mv	a0,a5
    211c:	01c12403          	lw	s0,28(sp)
    2120:	02010113          	addi	sp,sp,32
    2124:	00008067          	ret
