
final.rv:     file format elf32-littleriscv


Disassembly of section .text:

00002000 <_start>:
    2000:	00080137          	lui	sp,0x80
    2004:	004000ef          	jal	2008 <main>

00002008 <main>:
    2008:	ff010113          	addi	sp,sp,-16 # 7fff0 <_GLOBAL_OFFSET_TABLE_+0x7dbe0>
    200c:	00112623          	sw	ra,12(sp)
    2010:	00812423          	sw	s0,8(sp)
    2014:	01010413          	addi	s0,sp,16
    2018:	00600513          	li	a0,6
    201c:	0a8000ef          	jal	20c4 <fibonacci>
    2020:	00050793          	mv	a5,a0
    2024:	00d00593          	li	a1,13
    2028:	00078513          	mv	a0,a5
    202c:	118000ef          	jal	2144 <assert_equals>
    2030:	00050793          	mv	a5,a0
    2034:	08078063          	beqz	a5,20b4 <main+0xac>
    2038:	00500613          	li	a2,5
    203c:	00000597          	auipc	a1,0x0
    2040:	3dc5a583          	lw	a1,988(a1) # 2418 <_GLOBAL_OFFSET_TABLE_+0x8>
    2044:	00000517          	auipc	a0,0x0
    2048:	3d052503          	lw	a0,976(a0) # 2414 <_GLOBAL_OFFSET_TABLE_+0x4>
    204c:	130000ef          	jal	217c <dotp>
    2050:	00050793          	mv	a5,a0
    2054:	00900593          	li	a1,9
    2058:	00078513          	mv	a0,a5
    205c:	0e8000ef          	jal	2144 <assert_equals>
    2060:	00050793          	mv	a5,a0
    2064:	04078263          	beqz	a5,20a8 <main+0xa0>
    2068:	00000517          	auipc	a0,0x0
    206c:	3b452503          	lw	a0,948(a0) # 241c <_GLOBAL_OFFSET_TABLE_+0xc>
    2070:	22c000ef          	jal	229c <upcase>
    2074:	00000597          	auipc	a1,0x0
    2078:	35c58593          	addi	a1,a1,860 # 23d0 <my_strcmp+0x94>
    207c:	00000517          	auipc	a0,0x0
    2080:	3a052503          	lw	a0,928(a0) # 241c <_GLOBAL_OFFSET_TABLE_+0xc>
    2084:	2b8000ef          	jal	233c <my_strcmp>
    2088:	00050793          	mv	a5,a0
    208c:	00078863          	beqz	a5,209c <main+0x94>
    2090:	00100793          	li	a5,1
    2094:	51e79073          	csrw	0x51e,a5
    2098:	0240006f          	j	20bc <main+0xb4>
    209c:	00400793          	li	a5,4
    20a0:	51e79073          	csrw	0x51e,a5
    20a4:	0180006f          	j	20bc <main+0xb4>
    20a8:	00300793          	li	a5,3
    20ac:	51e79073          	csrw	0x51e,a5
    20b0:	00c0006f          	j	20bc <main+0xb4>
    20b4:	00200793          	li	a5,2
    20b8:	51e79073          	csrw	0x51e,a5
    20bc:	00000013          	nop
    20c0:	ffdff06f          	j	20bc <main+0xb4>

000020c4 <fibonacci>:
    20c4:	fe010113          	addi	sp,sp,-32
    20c8:	00112e23          	sw	ra,28(sp)
    20cc:	00812c23          	sw	s0,24(sp)
    20d0:	00912a23          	sw	s1,20(sp)
    20d4:	02010413          	addi	s0,sp,32
    20d8:	fea42623          	sw	a0,-20(s0)
    20dc:	fec42783          	lw	a5,-20(s0)
    20e0:	00079663          	bnez	a5,20ec <fibonacci+0x28>
    20e4:	00100793          	li	a5,1
    20e8:	0440006f          	j	212c <fibonacci+0x68>
    20ec:	fec42703          	lw	a4,-20(s0)
    20f0:	00100793          	li	a5,1
    20f4:	00f71663          	bne	a4,a5,2100 <fibonacci+0x3c>
    20f8:	00100793          	li	a5,1
    20fc:	0300006f          	j	212c <fibonacci+0x68>
    2100:	fec42783          	lw	a5,-20(s0)
    2104:	fff78793          	addi	a5,a5,-1
    2108:	00078513          	mv	a0,a5
    210c:	fb9ff0ef          	jal	20c4 <fibonacci>
    2110:	00050493          	mv	s1,a0
    2114:	fec42783          	lw	a5,-20(s0)
    2118:	ffe78793          	addi	a5,a5,-2
    211c:	00078513          	mv	a0,a5
    2120:	fa5ff0ef          	jal	20c4 <fibonacci>
    2124:	00050793          	mv	a5,a0
    2128:	00f487b3          	add	a5,s1,a5
    212c:	00078513          	mv	a0,a5
    2130:	01c12083          	lw	ra,28(sp)
    2134:	01812403          	lw	s0,24(sp)
    2138:	01412483          	lw	s1,20(sp)
    213c:	02010113          	addi	sp,sp,32
    2140:	00008067          	ret

00002144 <assert_equals>:
    2144:	fe010113          	addi	sp,sp,-32
    2148:	00812e23          	sw	s0,28(sp)
    214c:	02010413          	addi	s0,sp,32
    2150:	fea42623          	sw	a0,-20(s0)
    2154:	feb42423          	sw	a1,-24(s0)
    2158:	fec42703          	lw	a4,-20(s0)
    215c:	fe842783          	lw	a5,-24(s0)
    2160:	40f707b3          	sub	a5,a4,a5
    2164:	0017b793          	seqz	a5,a5
    2168:	0ff7f793          	andi	a5,a5,255
    216c:	00078513          	mv	a0,a5
    2170:	01c12403          	lw	s0,28(sp)
    2174:	02010113          	addi	sp,sp,32
    2178:	00008067          	ret

0000217c <dotp>:
    217c:	fd010113          	addi	sp,sp,-48
    2180:	02112623          	sw	ra,44(sp)
    2184:	02812423          	sw	s0,40(sp)
    2188:	03010413          	addi	s0,sp,48
    218c:	fca42e23          	sw	a0,-36(s0)
    2190:	fcb42c23          	sw	a1,-40(s0)
    2194:	fcc42a23          	sw	a2,-44(s0)
    2198:	fe042623          	sw	zero,-20(s0)
    219c:	fe042423          	sw	zero,-24(s0)
    21a0:	0540006f          	j	21f4 <dotp+0x78>
    21a4:	fe842783          	lw	a5,-24(s0)
    21a8:	00279793          	slli	a5,a5,0x2
    21ac:	fdc42703          	lw	a4,-36(s0)
    21b0:	00f707b3          	add	a5,a4,a5
    21b4:	0007a683          	lw	a3,0(a5)
    21b8:	fe842783          	lw	a5,-24(s0)
    21bc:	00279793          	slli	a5,a5,0x2
    21c0:	fd842703          	lw	a4,-40(s0)
    21c4:	00f707b3          	add	a5,a4,a5
    21c8:	0007a783          	lw	a5,0(a5)
    21cc:	00078593          	mv	a1,a5
    21d0:	00068513          	mv	a0,a3
    21d4:	044000ef          	jal	2218 <mul>
    21d8:	00050713          	mv	a4,a0
    21dc:	fec42783          	lw	a5,-20(s0)
    21e0:	00e787b3          	add	a5,a5,a4
    21e4:	fef42623          	sw	a5,-20(s0)
    21e8:	fe842783          	lw	a5,-24(s0)
    21ec:	00178793          	addi	a5,a5,1
    21f0:	fef42423          	sw	a5,-24(s0)
    21f4:	fe842703          	lw	a4,-24(s0)
    21f8:	fd442783          	lw	a5,-44(s0)
    21fc:	faf744e3          	blt	a4,a5,21a4 <dotp+0x28>
    2200:	fec42783          	lw	a5,-20(s0)
    2204:	00078513          	mv	a0,a5
    2208:	02c12083          	lw	ra,44(sp)
    220c:	02812403          	lw	s0,40(sp)
    2210:	03010113          	addi	sp,sp,48
    2214:	00008067          	ret

00002218 <mul>:
    2218:	fd010113          	addi	sp,sp,-48
    221c:	02812623          	sw	s0,44(sp)
    2220:	03010413          	addi	s0,sp,48
    2224:	fca42e23          	sw	a0,-36(s0)
    2228:	fcb42c23          	sw	a1,-40(s0)
    222c:	fe042623          	sw	zero,-20(s0)
    2230:	fe042423          	sw	zero,-24(s0)
    2234:	0480006f          	j	227c <mul+0x64>
    2238:	00100713          	li	a4,1
    223c:	fe842783          	lw	a5,-24(s0)
    2240:	00f717b3          	sll	a5,a4,a5
    2244:	fef42223          	sw	a5,-28(s0)
    2248:	fe442703          	lw	a4,-28(s0)
    224c:	fd842783          	lw	a5,-40(s0)
    2250:	00f777b3          	and	a5,a4,a5
    2254:	00078e63          	beqz	a5,2270 <mul+0x58>
    2258:	fdc42703          	lw	a4,-36(s0)
    225c:	fe842783          	lw	a5,-24(s0)
    2260:	00f717b3          	sll	a5,a4,a5
    2264:	fec42703          	lw	a4,-20(s0)
    2268:	00f707b3          	add	a5,a4,a5
    226c:	fef42623          	sw	a5,-20(s0)
    2270:	fe842783          	lw	a5,-24(s0)
    2274:	00178793          	addi	a5,a5,1
    2278:	fef42423          	sw	a5,-24(s0)
    227c:	fe842703          	lw	a4,-24(s0)
    2280:	01f00793          	li	a5,31
    2284:	fae7fae3          	bleu	a4,a5,2238 <mul+0x20>
    2288:	fec42783          	lw	a5,-20(s0)
    228c:	00078513          	mv	a0,a5
    2290:	02c12403          	lw	s0,44(sp)
    2294:	03010113          	addi	sp,sp,48
    2298:	00008067          	ret

0000229c <upcase>:
    229c:	fd010113          	addi	sp,sp,-48
    22a0:	02812623          	sw	s0,44(sp)
    22a4:	03010413          	addi	s0,sp,48
    22a8:	fca42e23          	sw	a0,-36(s0)
    22ac:	fe042623          	sw	zero,-20(s0)
    22b0:	0680006f          	j	2318 <upcase+0x7c>
    22b4:	fec42783          	lw	a5,-20(s0)
    22b8:	fdc42703          	lw	a4,-36(s0)
    22bc:	00f707b3          	add	a5,a4,a5
    22c0:	0007c703          	lbu	a4,0(a5)
    22c4:	06000793          	li	a5,96
    22c8:	04e7f263          	bleu	a4,a5,230c <upcase+0x70>
    22cc:	fec42783          	lw	a5,-20(s0)
    22d0:	fdc42703          	lw	a4,-36(s0)
    22d4:	00f707b3          	add	a5,a4,a5
    22d8:	0007c703          	lbu	a4,0(a5)
    22dc:	07a00793          	li	a5,122
    22e0:	02e7e663          	bltu	a5,a4,230c <upcase+0x70>
    22e4:	fec42783          	lw	a5,-20(s0)
    22e8:	fdc42703          	lw	a4,-36(s0)
    22ec:	00f707b3          	add	a5,a4,a5
    22f0:	fec42703          	lw	a4,-20(s0)
    22f4:	fdc42683          	lw	a3,-36(s0)
    22f8:	00e68733          	add	a4,a3,a4
    22fc:	00074703          	lbu	a4,0(a4)
    2300:	fdf77713          	andi	a4,a4,-33
    2304:	0ff77713          	andi	a4,a4,255
    2308:	00e78023          	sb	a4,0(a5)
    230c:	fec42783          	lw	a5,-20(s0)
    2310:	00178793          	addi	a5,a5,1
    2314:	fef42623          	sw	a5,-20(s0)
    2318:	fec42783          	lw	a5,-20(s0)
    231c:	fdc42703          	lw	a4,-36(s0)
    2320:	00f707b3          	add	a5,a4,a5
    2324:	0007c783          	lbu	a5,0(a5)
    2328:	f80796e3          	bnez	a5,22b4 <upcase+0x18>
    232c:	00000013          	nop
    2330:	02c12403          	lw	s0,44(sp)
    2334:	03010113          	addi	sp,sp,48
    2338:	00008067          	ret

0000233c <my_strcmp>:
    233c:	fd010113          	addi	sp,sp,-48
    2340:	02812623          	sw	s0,44(sp)
    2344:	03010413          	addi	s0,sp,48
    2348:	fca42e23          	sw	a0,-36(s0)
    234c:	fcb42c23          	sw	a1,-40(s0)
    2350:	00100793          	li	a5,1
    2354:	fef42623          	sw	a5,-20(s0)
    2358:	fe042423          	sw	zero,-24(s0)
    235c:	04c0006f          	j	23a8 <my_strcmp+0x6c>
    2360:	fe842783          	lw	a5,-24(s0)
    2364:	fdc42703          	lw	a4,-36(s0)
    2368:	00f707b3          	add	a5,a4,a5
    236c:	0007c703          	lbu	a4,0(a5)
    2370:	fe842783          	lw	a5,-24(s0)
    2374:	fd842683          	lw	a3,-40(s0)
    2378:	00f687b3          	add	a5,a3,a5
    237c:	0007c783          	lbu	a5,0(a5)
    2380:	40f707b3          	sub	a5,a4,a5
    2384:	0017b793          	seqz	a5,a5
    2388:	0ff7f793          	andi	a5,a5,255
    238c:	00078713          	mv	a4,a5
    2390:	fec42783          	lw	a5,-20(s0)
    2394:	00e7f7b3          	and	a5,a5,a4
    2398:	fef42623          	sw	a5,-20(s0)
    239c:	fe842783          	lw	a5,-24(s0)
    23a0:	00178793          	addi	a5,a5,1
    23a4:	fef42423          	sw	a5,-24(s0)
    23a8:	fe842783          	lw	a5,-24(s0)
    23ac:	fdc42703          	lw	a4,-36(s0)
    23b0:	00f707b3          	add	a5,a4,a5
    23b4:	0007c783          	lbu	a5,0(a5)
    23b8:	fa0794e3          	bnez	a5,2360 <my_strcmp+0x24>
    23bc:	fec42783          	lw	a5,-20(s0)
    23c0:	00078513          	mv	a0,a5
    23c4:	02c12403          	lw	s0,44(sp)
    23c8:	03010113          	addi	sp,sp,48
    23cc:	00008067          	ret
