
rv32ui-p-sub:     file format elf32-littleriscv


Disassembly of section .text:

00002000 <_start>:
    2000:	00000093          	li	ra,0
    2004:	00000113          	li	s0,0
    2008:	402081b3          	sub	s1,ra,s0
    200c:	00000e93          	li	t3,0
    2010:	00200e13          	li	t2,2
    2014:	4bd19663          	bne	s1,t3,24c0 <fail>

00002018 <test_3>:
    2018:	00100093          	li	ra,1
    201c:	00100113          	li	s0,1
    2020:	402081b3          	sub	s1,ra,s0
    2024:	00000e93          	li	t3,0
    2028:	00300e13          	li	t2,3
    202c:	49d19a63          	bne	s1,t3,24c0 <fail>

00002030 <test_4>:
    2030:	00300093          	li	ra,3
    2034:	00700113          	li	s0,7
    2038:	402081b3          	sub	s1,ra,s0
    203c:	ffc00e93          	li	t3,-4
    2040:	00400e13          	li	t2,4
    2044:	47d19e63          	bne	s1,t3,24c0 <fail>

00002048 <test_5>:
    2048:	00000093          	li	ra,0
    204c:	ffff8137          	lui	s0,0xffff8
    2050:	402081b3          	sub	s1,ra,s0
    2054:	00008eb7          	lui	t3,0x8
    2058:	00500e13          	li	t2,5
    205c:	47d19263          	bne	s1,t3,24c0 <fail>

00002060 <test_6>:
    2060:	800000b7          	lui	ra,0x80000
    2064:	00000113          	li	s0,0
    2068:	402081b3          	sub	s1,ra,s0
    206c:	80000eb7          	lui	t3,0x80000
    2070:	00600e13          	li	t2,6
    2074:	45d19663          	bne	s1,t3,24c0 <fail>

00002078 <test_7>:
    2078:	800000b7          	lui	ra,0x80000
    207c:	ffff8137          	lui	s0,0xffff8
    2080:	402081b3          	sub	s1,ra,s0
    2084:	80008eb7          	lui	t3,0x80008
    2088:	00700e13          	li	t2,7
    208c:	43d19a63          	bne	s1,t3,24c0 <fail>

00002090 <test_8>:
    2090:	00000093          	li	ra,0
    2094:	00008137          	lui	s0,0x8
    2098:	fff10113          	addi	s0,s0,-1 # 7fff <begin_signature+0x5b1f>
    209c:	402081b3          	sub	s1,ra,s0
    20a0:	ffff8eb7          	lui	t3,0xffff8
    20a4:	001e8e93          	addi	t3,t3,1 # ffff8001 <begin_signature+0xffff5b21>
    20a8:	00800e13          	li	t2,8
    20ac:	41d19a63          	bne	s1,t3,24c0 <fail>

000020b0 <test_9>:
    20b0:	800000b7          	lui	ra,0x80000
    20b4:	fff08093          	addi	ra,ra,-1 # 7fffffff <begin_signature+0x7fffdb1f>
    20b8:	00000113          	li	s0,0
    20bc:	402081b3          	sub	s1,ra,s0
    20c0:	80000eb7          	lui	t3,0x80000
    20c4:	fffe8e93          	addi	t3,t3,-1 # 7fffffff <begin_signature+0x7fffdb1f>
    20c8:	00900e13          	li	t2,9
    20cc:	3fd19a63          	bne	s1,t3,24c0 <fail>

000020d0 <test_10>:
    20d0:	800000b7          	lui	ra,0x80000
    20d4:	fff08093          	addi	ra,ra,-1 # 7fffffff <begin_signature+0x7fffdb1f>
    20d8:	00008137          	lui	s0,0x8
    20dc:	fff10113          	addi	s0,s0,-1 # 7fff <begin_signature+0x5b1f>
    20e0:	402081b3          	sub	s1,ra,s0
    20e4:	7fff8eb7          	lui	t3,0x7fff8
    20e8:	00a00e13          	li	t2,10
    20ec:	3dd19a63          	bne	s1,t3,24c0 <fail>

000020f0 <test_11>:
    20f0:	800000b7          	lui	ra,0x80000
    20f4:	00008137          	lui	s0,0x8
    20f8:	fff10113          	addi	s0,s0,-1 # 7fff <begin_signature+0x5b1f>
    20fc:	402081b3          	sub	s1,ra,s0
    2100:	7fff8eb7          	lui	t3,0x7fff8
    2104:	001e8e93          	addi	t3,t3,1 # 7fff8001 <begin_signature+0x7fff5b21>
    2108:	00b00e13          	li	t2,11
    210c:	3bd19a63          	bne	s1,t3,24c0 <fail>

00002110 <test_12>:
    2110:	800000b7          	lui	ra,0x80000
    2114:	fff08093          	addi	ra,ra,-1 # 7fffffff <begin_signature+0x7fffdb1f>
    2118:	ffff8137          	lui	s0,0xffff8
    211c:	402081b3          	sub	s1,ra,s0
    2120:	80008eb7          	lui	t3,0x80008
    2124:	fffe8e93          	addi	t3,t3,-1 # 80007fff <begin_signature+0x80005b1f>
    2128:	00c00e13          	li	t2,12
    212c:	39d19a63          	bne	s1,t3,24c0 <fail>

00002130 <test_13>:
    2130:	00000093          	li	ra,0
    2134:	fff00113          	li	s0,-1
    2138:	402081b3          	sub	s1,ra,s0
    213c:	00100e93          	li	t3,1
    2140:	00d00e13          	li	t2,13
    2144:	37d19e63          	bne	s1,t3,24c0 <fail>

00002148 <test_14>:
    2148:	fff00093          	li	ra,-1
    214c:	00100113          	li	s0,1
    2150:	402081b3          	sub	s1,ra,s0
    2154:	ffe00e93          	li	t3,-2
    2158:	00e00e13          	li	t2,14
    215c:	37d19263          	bne	s1,t3,24c0 <fail>

00002160 <test_15>:
    2160:	fff00093          	li	ra,-1
    2164:	fff00113          	li	s0,-1
    2168:	402081b3          	sub	s1,ra,s0
    216c:	00000e93          	li	t3,0
    2170:	00f00e13          	li	t2,15
    2174:	35d19663          	bne	s1,t3,24c0 <fail>

00002178 <test_16>:
    2178:	00d00093          	li	ra,13
    217c:	00b00113          	li	s0,11
    2180:	402080b3          	sub	ra,ra,s0
    2184:	00200e93          	li	t3,2
    2188:	01000e13          	li	t2,16
    218c:	33d09a63          	bne	ra,t3,24c0 <fail>

00002190 <test_17>:
    2190:	00e00093          	li	ra,14
    2194:	00b00113          	li	s0,11
    2198:	40208133          	sub	s0,ra,s0
    219c:	00300e93          	li	t3,3
    21a0:	01100e13          	li	t2,17
    21a4:	31d11e63          	bne	s0,t3,24c0 <fail>

000021a8 <test_18>:
    21a8:	00d00093          	li	ra,13
    21ac:	401080b3          	sub	ra,ra,ra
    21b0:	00000e93          	li	t3,0
    21b4:	01200e13          	li	t2,18
    21b8:	31d09463          	bne	ra,t3,24c0 <fail>

000021bc <test_19>:
    21bc:	00000213          	li	s2,0
    21c0:	00d00093          	li	ra,13
    21c4:	00b00113          	li	s0,11
    21c8:	402081b3          	sub	s1,ra,s0
    21cc:	00018313          	mv	s4,s1
    21d0:	00120213          	addi	s2,s2,1
    21d4:	00200293          	li	s3,2
    21d8:	fe5214e3          	bne	s2,s3,21c0 <test_19+0x4>
    21dc:	00200e93          	li	t3,2
    21e0:	01300e13          	li	t2,19
    21e4:	2dd31e63          	bne	s4,t3,24c0 <fail>

000021e8 <test_20>:
    21e8:	00000213          	li	s2,0
    21ec:	00e00093          	li	ra,14
    21f0:	00b00113          	li	s0,11
    21f4:	402081b3          	sub	s1,ra,s0
    21f8:	00000013          	nop
    21fc:	00018313          	mv	s4,s1
    2200:	00120213          	addi	s2,s2,1
    2204:	00200293          	li	s3,2
    2208:	fe5212e3          	bne	s2,s3,21ec <test_20+0x4>
    220c:	00300e93          	li	t3,3
    2210:	01400e13          	li	t2,20
    2214:	2bd31663          	bne	s4,t3,24c0 <fail>

00002218 <test_21>:
    2218:	00000213          	li	s2,0
    221c:	00f00093          	li	ra,15
    2220:	00b00113          	li	s0,11
    2224:	402081b3          	sub	s1,ra,s0
    2228:	00000013          	nop
    222c:	00000013          	nop
    2230:	00018313          	mv	s4,s1
    2234:	00120213          	addi	s2,s2,1
    2238:	00200293          	li	s3,2
    223c:	fe5210e3          	bne	s2,s3,221c <test_21+0x4>
    2240:	00400e93          	li	t3,4
    2244:	01500e13          	li	t2,21
    2248:	27d31c63          	bne	s4,t3,24c0 <fail>

0000224c <test_22>:
    224c:	00000213          	li	s2,0
    2250:	00d00093          	li	ra,13
    2254:	00b00113          	li	s0,11
    2258:	402081b3          	sub	s1,ra,s0
    225c:	00120213          	addi	s2,s2,1
    2260:	00200293          	li	s3,2
    2264:	fe5216e3          	bne	s2,s3,2250 <test_22+0x4>
    2268:	00200e93          	li	t3,2
    226c:	01600e13          	li	t2,22
    2270:	25d19863          	bne	s1,t3,24c0 <fail>

00002274 <test_23>:
    2274:	00000213          	li	s2,0
    2278:	00e00093          	li	ra,14
    227c:	00b00113          	li	s0,11
    2280:	00000013          	nop
    2284:	402081b3          	sub	s1,ra,s0
    2288:	00120213          	addi	s2,s2,1
    228c:	00200293          	li	s3,2
    2290:	fe5214e3          	bne	s2,s3,2278 <test_23+0x4>
    2294:	00300e93          	li	t3,3
    2298:	01700e13          	li	t2,23
    229c:	23d19263          	bne	s1,t3,24c0 <fail>

000022a0 <test_24>:
    22a0:	00000213          	li	s2,0
    22a4:	00f00093          	li	ra,15
    22a8:	00b00113          	li	s0,11
    22ac:	00000013          	nop
    22b0:	00000013          	nop
    22b4:	402081b3          	sub	s1,ra,s0
    22b8:	00120213          	addi	s2,s2,1
    22bc:	00200293          	li	s3,2
    22c0:	fe5212e3          	bne	s2,s3,22a4 <test_24+0x4>
    22c4:	00400e93          	li	t3,4
    22c8:	01800e13          	li	t2,24
    22cc:	1fd19a63          	bne	s1,t3,24c0 <fail>

000022d0 <test_25>:
    22d0:	00000213          	li	s2,0
    22d4:	00d00093          	li	ra,13
    22d8:	00000013          	nop
    22dc:	00b00113          	li	s0,11
    22e0:	402081b3          	sub	s1,ra,s0
    22e4:	00120213          	addi	s2,s2,1
    22e8:	00200293          	li	s3,2
    22ec:	fe5214e3          	bne	s2,s3,22d4 <test_25+0x4>
    22f0:	00200e93          	li	t3,2
    22f4:	01900e13          	li	t2,25
    22f8:	1dd19463          	bne	s1,t3,24c0 <fail>

000022fc <test_26>:
    22fc:	00000213          	li	s2,0
    2300:	00e00093          	li	ra,14
    2304:	00000013          	nop
    2308:	00b00113          	li	s0,11
    230c:	00000013          	nop
    2310:	402081b3          	sub	s1,ra,s0
    2314:	00120213          	addi	s2,s2,1
    2318:	00200293          	li	s3,2
    231c:	fe5212e3          	bne	s2,s3,2300 <test_26+0x4>
    2320:	00300e93          	li	t3,3
    2324:	01a00e13          	li	t2,26
    2328:	19d19c63          	bne	s1,t3,24c0 <fail>

0000232c <test_27>:
    232c:	00000213          	li	s2,0
    2330:	00f00093          	li	ra,15
    2334:	00000013          	nop
    2338:	00000013          	nop
    233c:	00b00113          	li	s0,11
    2340:	402081b3          	sub	s1,ra,s0
    2344:	00120213          	addi	s2,s2,1
    2348:	00200293          	li	s3,2
    234c:	fe5212e3          	bne	s2,s3,2330 <test_27+0x4>
    2350:	00400e93          	li	t3,4
    2354:	01b00e13          	li	t2,27
    2358:	17d19463          	bne	s1,t3,24c0 <fail>

0000235c <test_28>:
    235c:	00000213          	li	s2,0
    2360:	00b00113          	li	s0,11
    2364:	00d00093          	li	ra,13
    2368:	402081b3          	sub	s1,ra,s0
    236c:	00120213          	addi	s2,s2,1
    2370:	00200293          	li	s3,2
    2374:	fe5216e3          	bne	s2,s3,2360 <test_28+0x4>
    2378:	00200e93          	li	t3,2
    237c:	01c00e13          	li	t2,28
    2380:	15d19063          	bne	s1,t3,24c0 <fail>

00002384 <test_29>:
    2384:	00000213          	li	s2,0
    2388:	00b00113          	li	s0,11
    238c:	00e00093          	li	ra,14
    2390:	00000013          	nop
    2394:	402081b3          	sub	s1,ra,s0
    2398:	00120213          	addi	s2,s2,1
    239c:	00200293          	li	s3,2
    23a0:	fe5214e3          	bne	s2,s3,2388 <test_29+0x4>
    23a4:	00300e93          	li	t3,3
    23a8:	01d00e13          	li	t2,29
    23ac:	11d19a63          	bne	s1,t3,24c0 <fail>

000023b0 <test_30>:
    23b0:	00000213          	li	s2,0
    23b4:	00b00113          	li	s0,11
    23b8:	00f00093          	li	ra,15
    23bc:	00000013          	nop
    23c0:	00000013          	nop
    23c4:	402081b3          	sub	s1,ra,s0
    23c8:	00120213          	addi	s2,s2,1
    23cc:	00200293          	li	s3,2
    23d0:	fe5212e3          	bne	s2,s3,23b4 <test_30+0x4>
    23d4:	00400e93          	li	t3,4
    23d8:	01e00e13          	li	t2,30
    23dc:	0fd19263          	bne	s1,t3,24c0 <fail>

000023e0 <test_31>:
    23e0:	00000213          	li	s2,0
    23e4:	00b00113          	li	s0,11
    23e8:	00000013          	nop
    23ec:	00d00093          	li	ra,13
    23f0:	402081b3          	sub	s1,ra,s0
    23f4:	00120213          	addi	s2,s2,1
    23f8:	00200293          	li	s3,2
    23fc:	fe5214e3          	bne	s2,s3,23e4 <test_31+0x4>
    2400:	00200e93          	li	t3,2
    2404:	01f00e13          	li	t2,31
    2408:	0bd19c63          	bne	s1,t3,24c0 <fail>

0000240c <test_32>:
    240c:	00000213          	li	s2,0
    2410:	00b00113          	li	s0,11
    2414:	00000013          	nop
    2418:	00e00093          	li	ra,14
    241c:	00000013          	nop
    2420:	402081b3          	sub	s1,ra,s0
    2424:	00120213          	addi	s2,s2,1
    2428:	00200293          	li	s3,2
    242c:	fe5212e3          	bne	s2,s3,2410 <test_32+0x4>
    2430:	00300e93          	li	t3,3
    2434:	02000e13          	li	t2,32
    2438:	09d19463          	bne	s1,t3,24c0 <fail>

0000243c <test_33>:
    243c:	00000213          	li	s2,0
    2440:	00b00113          	li	s0,11
    2444:	00000013          	nop
    2448:	00000013          	nop
    244c:	00f00093          	li	ra,15
    2450:	402081b3          	sub	s1,ra,s0
    2454:	00120213          	addi	s2,s2,1
    2458:	00200293          	li	s3,2
    245c:	fe5212e3          	bne	s2,s3,2440 <test_33+0x4>
    2460:	00400e93          	li	t3,4
    2464:	02100e13          	li	t2,33
    2468:	05d19c63          	bne	s1,t3,24c0 <fail>

0000246c <test_34>:
    246c:	ff100093          	li	ra,-15
    2470:	40100133          	neg	s0,ra
    2474:	00f00e93          	li	t3,15
    2478:	02200e13          	li	t2,34
    247c:	05d11263          	bne	s0,t3,24c0 <fail>

00002480 <test_35>:
    2480:	02000093          	li	ra,32
    2484:	40008133          	sub	s0,ra,zero
    2488:	02000e93          	li	t3,32
    248c:	02300e13          	li	t2,35
    2490:	03d11863          	bne	s0,t3,24c0 <fail>

00002494 <test_36>:
    2494:	400000b3          	neg	ra,zero
    2498:	00000e93          	li	t3,0
    249c:	02400e13          	li	t2,36
    24a0:	03d09063          	bne	ra,t3,24c0 <fail>

000024a4 <test_37>:
    24a4:	01000093          	li	ra,16
    24a8:	01e00113          	li	s0,30
    24ac:	40208033          	sub	zero,ra,s0
    24b0:	00000e93          	li	t3,0
    24b4:	02500e13          	li	t2,37
    24b8:	01d01463          	bne	zero,t3,24c0 <fail>
    24bc:	01c01c63          	bne	zero,t2,24d4 <pass>

000024c0 <fail>:
    24c0:	000e0863          	beqz	t2,24d0 <fail+0x10>
    24c4:	001e1e13          	slli	t2,t2,0x1
    24c8:	001e6e13          	ori	t2,t2,1
    24cc:	51ee1073          	csrw	tohost,t2
    24d0:	00000063          	b	24d0 <fail+0x10>

000024d4 <pass>:
    24d4:	51e0d073          	csrwi	tohost,1
    24d8:	00000063          	b	24d8 <pass+0x4>
    24dc:	00000013          	nop
