
rv32ui-p-jal:     file format elf32-littleriscv


Disassembly of section .text:

00002000 <_start>:
    2000:	00200e13          	li	t2,2
    2004:	00000093          	li	ra,0

00002008 <linkaddr_2>:
    2008:	010000ef          	jal	2018 <target_2>
    200c:	00000013          	nop
    2010:	00000013          	nop
    2014:	0440006f          	j	2058 <fail>

00002018 <target_2>:
    2018:	00000117          	auipc	s0,0x0
    201c:	ff010113          	addi	s0,s0,-16 # 2008 <linkaddr_2>
    2020:	00410113          	addi	s0,s0,4
    2024:	02111a63          	bne	s0,ra,2058 <fail>

00002028 <test_3>:
    2028:	00100113          	li	s0,1
    202c:	014000ef          	jal	2040 <test_3+0x18>
    2030:	00110113          	addi	s0,s0,1
    2034:	00110113          	addi	s0,s0,1
    2038:	00110113          	addi	s0,s0,1
    203c:	00110113          	addi	s0,s0,1
    2040:	00110113          	addi	s0,s0,1
    2044:	00110113          	addi	s0,s0,1
    2048:	00300e93          	li	t3,3
    204c:	00300e13          	li	t2,3
    2050:	01d11463          	bne	s0,t3,2058 <fail>
    2054:	01c01c63          	bne	zero,t2,206c <pass>

00002058 <fail>:
    2058:	000e0863          	beqz	t2,2068 <fail+0x10>
    205c:	001e1e13          	slli	t2,t2,0x1
    2060:	001e6e13          	ori	t2,t2,1
    2064:	51ee1073          	csrw	tohost,t2
    2068:	00000063          	b	2068 <fail+0x10>

0000206c <pass>:
    206c:	51e0d073          	csrwi	tohost,1
    2070:	00000063          	b	2070 <pass+0x4>
    2074:	00000013          	nop
    2078:	00000013          	nop
    207c:	00000013          	nop
