
rv32ui-p-srli:     file format elf32-littleriscv


Disassembly of section .text:

00002000 <_start>:
    2000:	ffff80b7          	lui	ra,0xffff8
    2004:	0000d193          	srli	s1,ra,0x0
    2008:	ffff8eb7          	lui	t3,0xffff8
    200c:	00200e13          	li	t2,2
    2010:	2bd19263          	bne	s1,t3,22b4 <fail>

00002014 <test_3>:
    2014:	ffff80b7          	lui	ra,0xffff8
    2018:	0010d193          	srli	s1,ra,0x1
    201c:	7fffceb7          	lui	t3,0x7fffc
    2020:	00300e13          	li	t2,3
    2024:	29d19863          	bne	s1,t3,22b4 <fail>

00002028 <test_4>:
    2028:	ffff80b7          	lui	ra,0xffff8
    202c:	0070d193          	srli	s1,ra,0x7
    2030:	02000eb7          	lui	t3,0x2000
    2034:	f00e8e93          	addi	t3,t3,-256 # 1ffff00 <begin_signature+0x1ffdc30>
    2038:	00400e13          	li	t2,4
    203c:	27d19c63          	bne	s1,t3,22b4 <fail>

00002040 <test_5>:
    2040:	ffff80b7          	lui	ra,0xffff8
    2044:	00e0d193          	srli	s1,ra,0xe
    2048:	00040eb7          	lui	t3,0x40
    204c:	ffee8e93          	addi	t3,t3,-2 # 3fffe <begin_signature+0x3dd2e>
    2050:	00500e13          	li	t2,5
    2054:	27d19063          	bne	s1,t3,22b4 <fail>

00002058 <test_6>:
    2058:	ffff80b7          	lui	ra,0xffff8
    205c:	00108093          	addi	ra,ra,1 # ffff8001 <begin_signature+0xffff5d31>
    2060:	00f0d193          	srli	s1,ra,0xf
    2064:	00020eb7          	lui	t3,0x20
    2068:	fffe8e93          	addi	t3,t3,-1 # 1ffff <begin_signature+0x1dd2f>
    206c:	00600e13          	li	t2,6
    2070:	25d19263          	bne	s1,t3,22b4 <fail>

00002074 <test_7>:
    2074:	fff00093          	li	ra,-1
    2078:	0000d193          	srli	s1,ra,0x0
    207c:	fff00e93          	li	t3,-1
    2080:	00700e13          	li	t2,7
    2084:	23d19863          	bne	s1,t3,22b4 <fail>

00002088 <test_8>:
    2088:	fff00093          	li	ra,-1
    208c:	0010d193          	srli	s1,ra,0x1
    2090:	80000eb7          	lui	t3,0x80000
    2094:	fffe8e93          	addi	t3,t3,-1 # 7fffffff <begin_signature+0x7fffdd2f>
    2098:	00800e13          	li	t2,8
    209c:	21d19c63          	bne	s1,t3,22b4 <fail>

000020a0 <test_9>:
    20a0:	fff00093          	li	ra,-1
    20a4:	0070d193          	srli	s1,ra,0x7
    20a8:	02000eb7          	lui	t3,0x2000
    20ac:	fffe8e93          	addi	t3,t3,-1 # 1ffffff <begin_signature+0x1ffdd2f>
    20b0:	00900e13          	li	t2,9
    20b4:	21d19063          	bne	s1,t3,22b4 <fail>

000020b8 <test_10>:
    20b8:	fff00093          	li	ra,-1
    20bc:	00e0d193          	srli	s1,ra,0xe
    20c0:	00040eb7          	lui	t3,0x40
    20c4:	fffe8e93          	addi	t3,t3,-1 # 3ffff <begin_signature+0x3dd2f>
    20c8:	00a00e13          	li	t2,10
    20cc:	1fd19463          	bne	s1,t3,22b4 <fail>

000020d0 <test_11>:
    20d0:	fff00093          	li	ra,-1
    20d4:	01f0d193          	srli	s1,ra,0x1f
    20d8:	00100e93          	li	t3,1
    20dc:	00b00e13          	li	t2,11
    20e0:	1dd19a63          	bne	s1,t3,22b4 <fail>

000020e4 <test_12>:
    20e4:	212120b7          	lui	ra,0x21212
    20e8:	12108093          	addi	ra,ra,289 # 21212121 <begin_signature+0x2120fe51>
    20ec:	0000d193          	srli	s1,ra,0x0
    20f0:	21212eb7          	lui	t3,0x21212
    20f4:	121e8e93          	addi	t3,t3,289 # 21212121 <begin_signature+0x2120fe51>
    20f8:	00c00e13          	li	t2,12
    20fc:	1bd19c63          	bne	s1,t3,22b4 <fail>

00002100 <test_13>:
    2100:	212120b7          	lui	ra,0x21212
    2104:	12108093          	addi	ra,ra,289 # 21212121 <begin_signature+0x2120fe51>
    2108:	0010d193          	srli	s1,ra,0x1
    210c:	10909eb7          	lui	t3,0x10909
    2110:	090e8e93          	addi	t3,t3,144 # 10909090 <begin_signature+0x10906dc0>
    2114:	00d00e13          	li	t2,13
    2118:	19d19e63          	bne	s1,t3,22b4 <fail>

0000211c <test_14>:
    211c:	212120b7          	lui	ra,0x21212
    2120:	12108093          	addi	ra,ra,289 # 21212121 <begin_signature+0x2120fe51>
    2124:	0070d193          	srli	s1,ra,0x7
    2128:	00424eb7          	lui	t3,0x424
    212c:	242e8e93          	addi	t3,t3,578 # 424242 <begin_signature+0x421f72>
    2130:	00e00e13          	li	t2,14
    2134:	19d19063          	bne	s1,t3,22b4 <fail>

00002138 <test_15>:
    2138:	212120b7          	lui	ra,0x21212
    213c:	12108093          	addi	ra,ra,289 # 21212121 <begin_signature+0x2120fe51>
    2140:	00e0d193          	srli	s1,ra,0xe
    2144:	00008eb7          	lui	t3,0x8
    2148:	484e8e93          	addi	t3,t3,1156 # 8484 <begin_signature+0x61b4>
    214c:	00f00e13          	li	t2,15
    2150:	17d19263          	bne	s1,t3,22b4 <fail>

00002154 <test_16>:
    2154:	212120b7          	lui	ra,0x21212
    2158:	12108093          	addi	ra,ra,289 # 21212121 <begin_signature+0x2120fe51>
    215c:	01f0d193          	srli	s1,ra,0x1f
    2160:	00000e93          	li	t3,0
    2164:	01000e13          	li	t2,16
    2168:	15d19663          	bne	s1,t3,22b4 <fail>

0000216c <test_21>:
    216c:	ffff80b7          	lui	ra,0xffff8
    2170:	0010d093          	srli	ra,ra,0x1
    2174:	7fffceb7          	lui	t3,0x7fffc
    2178:	01500e13          	li	t2,21
    217c:	13d09c63          	bne	ra,t3,22b4 <fail>

00002180 <test_22>:
    2180:	00000213          	li	s2,0
    2184:	ffff80b7          	lui	ra,0xffff8
    2188:	0010d193          	srli	s1,ra,0x1
    218c:	00018313          	mv	s4,s1
    2190:	00120213          	addi	s2,s2,1
    2194:	00200293          	li	s3,2
    2198:	fe5216e3          	bne	s2,s3,2184 <test_22+0x4>
    219c:	7fffceb7          	lui	t3,0x7fffc
    21a0:	01600e13          	li	t2,22
    21a4:	11d31863          	bne	s4,t3,22b4 <fail>

000021a8 <test_23>:
    21a8:	00000213          	li	s2,0
    21ac:	ffff80b7          	lui	ra,0xffff8
    21b0:	00e0d193          	srli	s1,ra,0xe
    21b4:	00000013          	nop
    21b8:	00018313          	mv	s4,s1
    21bc:	00120213          	addi	s2,s2,1
    21c0:	00200293          	li	s3,2
    21c4:	fe5214e3          	bne	s2,s3,21ac <test_23+0x4>
    21c8:	00040eb7          	lui	t3,0x40
    21cc:	ffee8e93          	addi	t3,t3,-2 # 3fffe <begin_signature+0x3dd2e>
    21d0:	01700e13          	li	t2,23
    21d4:	0fd31063          	bne	s4,t3,22b4 <fail>

000021d8 <test_24>:
    21d8:	00000213          	li	s2,0
    21dc:	ffff80b7          	lui	ra,0xffff8
    21e0:	00f0d193          	srli	s1,ra,0xf
    21e4:	00000013          	nop
    21e8:	00000013          	nop
    21ec:	00018313          	mv	s4,s1
    21f0:	00120213          	addi	s2,s2,1
    21f4:	00200293          	li	s3,2
    21f8:	fe5212e3          	bne	s2,s3,21dc <test_24+0x4>
    21fc:	00020eb7          	lui	t3,0x20
    2200:	fffe8e93          	addi	t3,t3,-1 # 1ffff <begin_signature+0x1dd2f>
    2204:	01800e13          	li	t2,24
    2208:	0bd31663          	bne	s4,t3,22b4 <fail>

0000220c <test_25>:
    220c:	00000213          	li	s2,0
    2210:	ffff80b7          	lui	ra,0xffff8
    2214:	0010d193          	srli	s1,ra,0x1
    2218:	00120213          	addi	s2,s2,1
    221c:	00200293          	li	s3,2
    2220:	fe5218e3          	bne	s2,s3,2210 <test_25+0x4>
    2224:	7fffceb7          	lui	t3,0x7fffc
    2228:	01900e13          	li	t2,25
    222c:	09d19463          	bne	s1,t3,22b4 <fail>

00002230 <test_26>:
    2230:	00000213          	li	s2,0
    2234:	ffff80b7          	lui	ra,0xffff8
    2238:	00000013          	nop
    223c:	00e0d193          	srli	s1,ra,0xe
    2240:	00120213          	addi	s2,s2,1
    2244:	00200293          	li	s3,2
    2248:	fe5216e3          	bne	s2,s3,2234 <test_26+0x4>
    224c:	00040eb7          	lui	t3,0x40
    2250:	ffee8e93          	addi	t3,t3,-2 # 3fffe <begin_signature+0x3dd2e>
    2254:	01a00e13          	li	t2,26
    2258:	05d19e63          	bne	s1,t3,22b4 <fail>

0000225c <test_27>:
    225c:	00000213          	li	s2,0
    2260:	ffff80b7          	lui	ra,0xffff8
    2264:	00000013          	nop
    2268:	00000013          	nop
    226c:	00f0d193          	srli	s1,ra,0xf
    2270:	00120213          	addi	s2,s2,1
    2274:	00200293          	li	s3,2
    2278:	fe5214e3          	bne	s2,s3,2260 <test_27+0x4>
    227c:	00020eb7          	lui	t3,0x20
    2280:	fffe8e93          	addi	t3,t3,-1 # 1ffff <begin_signature+0x1dd2f>
    2284:	01b00e13          	li	t2,27
    2288:	03d19663          	bne	s1,t3,22b4 <fail>

0000228c <test_28>:
    228c:	01f05093          	srli	ra,zero,0x1f
    2290:	00000e93          	li	t3,0
    2294:	01c00e13          	li	t2,28
    2298:	01d09e63          	bne	ra,t3,22b4 <fail>

0000229c <test_29>:
    229c:	02100093          	li	ra,33
    22a0:	0140d013          	srli	zero,ra,0x14
    22a4:	00000e93          	li	t3,0
    22a8:	01d00e13          	li	t2,29
    22ac:	01d01463          	bne	zero,t3,22b4 <fail>
    22b0:	01c01c63          	bne	zero,t2,22c8 <pass>

000022b4 <fail>:
    22b4:	000e0863          	beqz	t2,22c4 <fail+0x10>
    22b8:	001e1e13          	slli	t2,t2,0x1
    22bc:	001e6e13          	ori	t2,t2,1
    22c0:	51ee1073          	csrw	tohost,t2
    22c4:	00000063          	b	22c4 <fail+0x10>

000022c8 <pass>:
    22c8:	51e0d073          	csrwi	tohost,1
    22cc:	00000063          	b	22cc <pass+0x4>
