
rv32ui-p-sll:     file format elf32-littleriscv


Disassembly of section .text:

00002000 <_start>:
    2000:	00100093          	li	ra,1
    2004:	00000113          	li	s0,0
    2008:	002091b3          	sll	s1,ra,s0
    200c:	00100e93          	li	t3,1
    2010:	00200e13          	li	t2,2
    2014:	55d19c63          	bne	s1,t3,256c <fail>

00002018 <test_3>:
    2018:	00100093          	li	ra,1
    201c:	00100113          	li	s0,1
    2020:	002091b3          	sll	s1,ra,s0
    2024:	00200e93          	li	t3,2
    2028:	00300e13          	li	t2,3
    202c:	55d19063          	bne	s1,t3,256c <fail>

00002030 <test_4>:
    2030:	00100093          	li	ra,1
    2034:	00700113          	li	s0,7
    2038:	002091b3          	sll	s1,ra,s0
    203c:	08000e93          	li	t3,128
    2040:	00400e13          	li	t2,4
    2044:	53d19463          	bne	s1,t3,256c <fail>

00002048 <test_5>:
    2048:	00100093          	li	ra,1
    204c:	00e00113          	li	s0,14
    2050:	002091b3          	sll	s1,ra,s0
    2054:	00004eb7          	lui	t3,0x4
    2058:	00500e13          	li	t2,5
    205c:	51d19863          	bne	s1,t3,256c <fail>

00002060 <test_6>:
    2060:	00100093          	li	ra,1
    2064:	01f00113          	li	s0,31
    2068:	002091b3          	sll	s1,ra,s0
    206c:	80000eb7          	lui	t3,0x80000
    2070:	00600e13          	li	t2,6
    2074:	4fd19c63          	bne	s1,t3,256c <fail>

00002078 <test_7>:
    2078:	fff00093          	li	ra,-1
    207c:	00000113          	li	s0,0
    2080:	002091b3          	sll	s1,ra,s0
    2084:	fff00e93          	li	t3,-1
    2088:	00700e13          	li	t2,7
    208c:	4fd19063          	bne	s1,t3,256c <fail>

00002090 <test_8>:
    2090:	fff00093          	li	ra,-1
    2094:	00100113          	li	s0,1
    2098:	002091b3          	sll	s1,ra,s0
    209c:	ffe00e93          	li	t3,-2
    20a0:	00800e13          	li	t2,8
    20a4:	4dd19463          	bne	s1,t3,256c <fail>

000020a8 <test_9>:
    20a8:	fff00093          	li	ra,-1
    20ac:	00700113          	li	s0,7
    20b0:	002091b3          	sll	s1,ra,s0
    20b4:	f8000e93          	li	t3,-128
    20b8:	00900e13          	li	t2,9
    20bc:	4bd19863          	bne	s1,t3,256c <fail>

000020c0 <test_10>:
    20c0:	fff00093          	li	ra,-1
    20c4:	00e00113          	li	s0,14
    20c8:	002091b3          	sll	s1,ra,s0
    20cc:	ffffceb7          	lui	t3,0xffffc
    20d0:	00a00e13          	li	t2,10
    20d4:	49d19c63          	bne	s1,t3,256c <fail>

000020d8 <test_11>:
    20d8:	fff00093          	li	ra,-1
    20dc:	01f00113          	li	s0,31
    20e0:	002091b3          	sll	s1,ra,s0
    20e4:	80000eb7          	lui	t3,0x80000
    20e8:	00b00e13          	li	t2,11
    20ec:	49d19063          	bne	s1,t3,256c <fail>

000020f0 <test_12>:
    20f0:	212120b7          	lui	ra,0x21212
    20f4:	12108093          	addi	ra,ra,289 # 21212121 <begin_signature+0x2120fb91>
    20f8:	00000113          	li	s0,0
    20fc:	002091b3          	sll	s1,ra,s0
    2100:	21212eb7          	lui	t3,0x21212
    2104:	121e8e93          	addi	t3,t3,289 # 21212121 <begin_signature+0x2120fb91>
    2108:	00c00e13          	li	t2,12
    210c:	47d19063          	bne	s1,t3,256c <fail>

00002110 <test_13>:
    2110:	212120b7          	lui	ra,0x21212
    2114:	12108093          	addi	ra,ra,289 # 21212121 <begin_signature+0x2120fb91>
    2118:	00100113          	li	s0,1
    211c:	002091b3          	sll	s1,ra,s0
    2120:	42424eb7          	lui	t3,0x42424
    2124:	242e8e93          	addi	t3,t3,578 # 42424242 <begin_signature+0x42421cb2>
    2128:	00d00e13          	li	t2,13
    212c:	45d19063          	bne	s1,t3,256c <fail>

00002130 <test_14>:
    2130:	212120b7          	lui	ra,0x21212
    2134:	12108093          	addi	ra,ra,289 # 21212121 <begin_signature+0x2120fb91>
    2138:	00700113          	li	s0,7
    213c:	002091b3          	sll	s1,ra,s0
    2140:	90909eb7          	lui	t3,0x90909
    2144:	080e8e93          	addi	t3,t3,128 # 90909080 <begin_signature+0x90906af0>
    2148:	00e00e13          	li	t2,14
    214c:	43d19063          	bne	s1,t3,256c <fail>

00002150 <test_15>:
    2150:	212120b7          	lui	ra,0x21212
    2154:	12108093          	addi	ra,ra,289 # 21212121 <begin_signature+0x2120fb91>
    2158:	00e00113          	li	s0,14
    215c:	002091b3          	sll	s1,ra,s0
    2160:	48484eb7          	lui	t3,0x48484
    2164:	00f00e13          	li	t2,15
    2168:	41d19263          	bne	s1,t3,256c <fail>

0000216c <test_16>:
    216c:	212120b7          	lui	ra,0x21212
    2170:	12108093          	addi	ra,ra,289 # 21212121 <begin_signature+0x2120fb91>
    2174:	01f00113          	li	s0,31
    2178:	002091b3          	sll	s1,ra,s0
    217c:	80000eb7          	lui	t3,0x80000
    2180:	01000e13          	li	t2,16
    2184:	3fd19463          	bne	s1,t3,256c <fail>

00002188 <test_17>:
    2188:	212120b7          	lui	ra,0x21212
    218c:	12108093          	addi	ra,ra,289 # 21212121 <begin_signature+0x2120fb91>
    2190:	fe000113          	li	s0,-32
    2194:	002091b3          	sll	s1,ra,s0
    2198:	21212eb7          	lui	t3,0x21212
    219c:	121e8e93          	addi	t3,t3,289 # 21212121 <begin_signature+0x2120fb91>
    21a0:	01100e13          	li	t2,17
    21a4:	3dd19463          	bne	s1,t3,256c <fail>

000021a8 <test_18>:
    21a8:	212120b7          	lui	ra,0x21212
    21ac:	12108093          	addi	ra,ra,289 # 21212121 <begin_signature+0x2120fb91>
    21b0:	fe100113          	li	s0,-31
    21b4:	002091b3          	sll	s1,ra,s0
    21b8:	42424eb7          	lui	t3,0x42424
    21bc:	242e8e93          	addi	t3,t3,578 # 42424242 <begin_signature+0x42421cb2>
    21c0:	01200e13          	li	t2,18
    21c4:	3bd19463          	bne	s1,t3,256c <fail>

000021c8 <test_19>:
    21c8:	212120b7          	lui	ra,0x21212
    21cc:	12108093          	addi	ra,ra,289 # 21212121 <begin_signature+0x2120fb91>
    21d0:	fe700113          	li	s0,-25
    21d4:	002091b3          	sll	s1,ra,s0
    21d8:	90909eb7          	lui	t3,0x90909
    21dc:	080e8e93          	addi	t3,t3,128 # 90909080 <begin_signature+0x90906af0>
    21e0:	01300e13          	li	t2,19
    21e4:	39d19463          	bne	s1,t3,256c <fail>

000021e8 <test_20>:
    21e8:	212120b7          	lui	ra,0x21212
    21ec:	12108093          	addi	ra,ra,289 # 21212121 <begin_signature+0x2120fb91>
    21f0:	fee00113          	li	s0,-18
    21f4:	002091b3          	sll	s1,ra,s0
    21f8:	48484eb7          	lui	t3,0x48484
    21fc:	01400e13          	li	t2,20
    2200:	37d19663          	bne	s1,t3,256c <fail>

00002204 <test_21>:
    2204:	212120b7          	lui	ra,0x21212
    2208:	12008093          	addi	ra,ra,288 # 21212120 <begin_signature+0x2120fb90>
    220c:	fff00113          	li	s0,-1
    2210:	002091b3          	sll	s1,ra,s0
    2214:	00000e93          	li	t3,0
    2218:	01500e13          	li	t2,21
    221c:	35d19863          	bne	s1,t3,256c <fail>

00002220 <test_22>:
    2220:	00100093          	li	ra,1
    2224:	00700113          	li	s0,7
    2228:	002090b3          	sll	ra,ra,s0
    222c:	08000e93          	li	t3,128
    2230:	01600e13          	li	t2,22
    2234:	33d09c63          	bne	ra,t3,256c <fail>

00002238 <test_23>:
    2238:	00100093          	li	ra,1
    223c:	00e00113          	li	s0,14
    2240:	00209133          	sll	s0,ra,s0
    2244:	00004eb7          	lui	t3,0x4
    2248:	01700e13          	li	t2,23
    224c:	33d11063          	bne	s0,t3,256c <fail>

00002250 <test_24>:
    2250:	00300093          	li	ra,3
    2254:	001090b3          	sll	ra,ra,ra
    2258:	01800e93          	li	t3,24
    225c:	01800e13          	li	t2,24
    2260:	31d09663          	bne	ra,t3,256c <fail>

00002264 <test_25>:
    2264:	00000213          	li	s2,0
    2268:	00100093          	li	ra,1
    226c:	00700113          	li	s0,7
    2270:	002091b3          	sll	s1,ra,s0
    2274:	00018313          	mv	s4,s1
    2278:	00120213          	addi	s2,s2,1
    227c:	00200293          	li	s3,2
    2280:	fe5214e3          	bne	s2,s3,2268 <test_25+0x4>
    2284:	08000e93          	li	t3,128
    2288:	01900e13          	li	t2,25
    228c:	2fd31063          	bne	s4,t3,256c <fail>

00002290 <test_26>:
    2290:	00000213          	li	s2,0
    2294:	00100093          	li	ra,1
    2298:	00e00113          	li	s0,14
    229c:	002091b3          	sll	s1,ra,s0
    22a0:	00000013          	nop
    22a4:	00018313          	mv	s4,s1
    22a8:	00120213          	addi	s2,s2,1
    22ac:	00200293          	li	s3,2
    22b0:	fe5212e3          	bne	s2,s3,2294 <test_26+0x4>
    22b4:	00004eb7          	lui	t3,0x4
    22b8:	01a00e13          	li	t2,26
    22bc:	2bd31863          	bne	s4,t3,256c <fail>

000022c0 <test_27>:
    22c0:	00000213          	li	s2,0
    22c4:	00100093          	li	ra,1
    22c8:	01f00113          	li	s0,31
    22cc:	002091b3          	sll	s1,ra,s0
    22d0:	00000013          	nop
    22d4:	00000013          	nop
    22d8:	00018313          	mv	s4,s1
    22dc:	00120213          	addi	s2,s2,1
    22e0:	00200293          	li	s3,2
    22e4:	fe5210e3          	bne	s2,s3,22c4 <test_27+0x4>
    22e8:	80000eb7          	lui	t3,0x80000
    22ec:	01b00e13          	li	t2,27
    22f0:	27d31e63          	bne	s4,t3,256c <fail>

000022f4 <test_28>:
    22f4:	00000213          	li	s2,0
    22f8:	00100093          	li	ra,1
    22fc:	00700113          	li	s0,7
    2300:	002091b3          	sll	s1,ra,s0
    2304:	00120213          	addi	s2,s2,1
    2308:	00200293          	li	s3,2
    230c:	fe5216e3          	bne	s2,s3,22f8 <test_28+0x4>
    2310:	08000e93          	li	t3,128
    2314:	01c00e13          	li	t2,28
    2318:	25d19a63          	bne	s1,t3,256c <fail>

0000231c <test_29>:
    231c:	00000213          	li	s2,0
    2320:	00100093          	li	ra,1
    2324:	00e00113          	li	s0,14
    2328:	00000013          	nop
    232c:	002091b3          	sll	s1,ra,s0
    2330:	00120213          	addi	s2,s2,1
    2334:	00200293          	li	s3,2
    2338:	fe5214e3          	bne	s2,s3,2320 <test_29+0x4>
    233c:	00004eb7          	lui	t3,0x4
    2340:	01d00e13          	li	t2,29
    2344:	23d19463          	bne	s1,t3,256c <fail>

00002348 <test_30>:
    2348:	00000213          	li	s2,0
    234c:	00100093          	li	ra,1
    2350:	01f00113          	li	s0,31
    2354:	00000013          	nop
    2358:	00000013          	nop
    235c:	002091b3          	sll	s1,ra,s0
    2360:	00120213          	addi	s2,s2,1
    2364:	00200293          	li	s3,2
    2368:	fe5212e3          	bne	s2,s3,234c <test_30+0x4>
    236c:	80000eb7          	lui	t3,0x80000
    2370:	01e00e13          	li	t2,30
    2374:	1fd19c63          	bne	s1,t3,256c <fail>

00002378 <test_31>:
    2378:	00000213          	li	s2,0
    237c:	00100093          	li	ra,1
    2380:	00000013          	nop
    2384:	00700113          	li	s0,7
    2388:	002091b3          	sll	s1,ra,s0
    238c:	00120213          	addi	s2,s2,1
    2390:	00200293          	li	s3,2
    2394:	fe5214e3          	bne	s2,s3,237c <test_31+0x4>
    2398:	08000e93          	li	t3,128
    239c:	01f00e13          	li	t2,31
    23a0:	1dd19663          	bne	s1,t3,256c <fail>

000023a4 <test_32>:
    23a4:	00000213          	li	s2,0
    23a8:	00100093          	li	ra,1
    23ac:	00000013          	nop
    23b0:	00e00113          	li	s0,14
    23b4:	00000013          	nop
    23b8:	002091b3          	sll	s1,ra,s0
    23bc:	00120213          	addi	s2,s2,1
    23c0:	00200293          	li	s3,2
    23c4:	fe5212e3          	bne	s2,s3,23a8 <test_32+0x4>
    23c8:	00004eb7          	lui	t3,0x4
    23cc:	02000e13          	li	t2,32
    23d0:	19d19e63          	bne	s1,t3,256c <fail>

000023d4 <test_33>:
    23d4:	00000213          	li	s2,0
    23d8:	00100093          	li	ra,1
    23dc:	00000013          	nop
    23e0:	00000013          	nop
    23e4:	01f00113          	li	s0,31
    23e8:	002091b3          	sll	s1,ra,s0
    23ec:	00120213          	addi	s2,s2,1
    23f0:	00200293          	li	s3,2
    23f4:	fe5212e3          	bne	s2,s3,23d8 <test_33+0x4>
    23f8:	80000eb7          	lui	t3,0x80000
    23fc:	02100e13          	li	t2,33
    2400:	17d19663          	bne	s1,t3,256c <fail>

00002404 <test_34>:
    2404:	00000213          	li	s2,0
    2408:	00700113          	li	s0,7
    240c:	00100093          	li	ra,1
    2410:	002091b3          	sll	s1,ra,s0
    2414:	00120213          	addi	s2,s2,1
    2418:	00200293          	li	s3,2
    241c:	fe5216e3          	bne	s2,s3,2408 <test_34+0x4>
    2420:	08000e93          	li	t3,128
    2424:	02200e13          	li	t2,34
    2428:	15d19263          	bne	s1,t3,256c <fail>

0000242c <test_35>:
    242c:	00000213          	li	s2,0
    2430:	00e00113          	li	s0,14
    2434:	00100093          	li	ra,1
    2438:	00000013          	nop
    243c:	002091b3          	sll	s1,ra,s0
    2440:	00120213          	addi	s2,s2,1
    2444:	00200293          	li	s3,2
    2448:	fe5214e3          	bne	s2,s3,2430 <test_35+0x4>
    244c:	00004eb7          	lui	t3,0x4
    2450:	02300e13          	li	t2,35
    2454:	11d19c63          	bne	s1,t3,256c <fail>

00002458 <test_36>:
    2458:	00000213          	li	s2,0
    245c:	01f00113          	li	s0,31
    2460:	00100093          	li	ra,1
    2464:	00000013          	nop
    2468:	00000013          	nop
    246c:	002091b3          	sll	s1,ra,s0
    2470:	00120213          	addi	s2,s2,1
    2474:	00200293          	li	s3,2
    2478:	fe5212e3          	bne	s2,s3,245c <test_36+0x4>
    247c:	80000eb7          	lui	t3,0x80000
    2480:	02400e13          	li	t2,36
    2484:	0fd19463          	bne	s1,t3,256c <fail>

00002488 <test_37>:
    2488:	00000213          	li	s2,0
    248c:	00700113          	li	s0,7
    2490:	00000013          	nop
    2494:	00100093          	li	ra,1
    2498:	002091b3          	sll	s1,ra,s0
    249c:	00120213          	addi	s2,s2,1
    24a0:	00200293          	li	s3,2
    24a4:	fe5214e3          	bne	s2,s3,248c <test_37+0x4>
    24a8:	08000e93          	li	t3,128
    24ac:	02500e13          	li	t2,37
    24b0:	0bd19e63          	bne	s1,t3,256c <fail>

000024b4 <test_38>:
    24b4:	00000213          	li	s2,0
    24b8:	00e00113          	li	s0,14
    24bc:	00000013          	nop
    24c0:	00100093          	li	ra,1
    24c4:	00000013          	nop
    24c8:	002091b3          	sll	s1,ra,s0
    24cc:	00120213          	addi	s2,s2,1
    24d0:	00200293          	li	s3,2
    24d4:	fe5212e3          	bne	s2,s3,24b8 <test_38+0x4>
    24d8:	00004eb7          	lui	t3,0x4
    24dc:	02600e13          	li	t2,38
    24e0:	09d19663          	bne	s1,t3,256c <fail>

000024e4 <test_39>:
    24e4:	00000213          	li	s2,0
    24e8:	01f00113          	li	s0,31
    24ec:	00000013          	nop
    24f0:	00000013          	nop
    24f4:	00100093          	li	ra,1
    24f8:	002091b3          	sll	s1,ra,s0
    24fc:	00120213          	addi	s2,s2,1
    2500:	00200293          	li	s3,2
    2504:	fe5212e3          	bne	s2,s3,24e8 <test_39+0x4>
    2508:	80000eb7          	lui	t3,0x80000
    250c:	02700e13          	li	t2,39
    2510:	05d19e63          	bne	s1,t3,256c <fail>

00002514 <test_40>:
    2514:	00f00093          	li	ra,15
    2518:	00101133          	sll	s0,zero,ra
    251c:	00000e93          	li	t3,0
    2520:	02800e13          	li	t2,40
    2524:	05d11463          	bne	s0,t3,256c <fail>

00002528 <test_41>:
    2528:	02000093          	li	ra,32
    252c:	00009133          	sll	s0,ra,zero
    2530:	02000e93          	li	t3,32
    2534:	02900e13          	li	t2,41
    2538:	03d11a63          	bne	s0,t3,256c <fail>

0000253c <test_42>:
    253c:	000010b3          	sll	ra,zero,zero
    2540:	00000e93          	li	t3,0
    2544:	02a00e13          	li	t2,42
    2548:	03d09263          	bne	ra,t3,256c <fail>

0000254c <test_43>:
    254c:	40000093          	li	ra,1024
    2550:	00001137          	lui	s0,0x1
    2554:	80010113          	addi	s0,s0,-2048 # 800 <_start-0x1800>
    2558:	00209033          	sll	zero,ra,s0
    255c:	00000e93          	li	t3,0
    2560:	02b00e13          	li	t2,43
    2564:	01d01463          	bne	zero,t3,256c <fail>
    2568:	01c01c63          	bne	zero,t2,2580 <pass>

0000256c <fail>:
    256c:	000e0863          	beqz	t2,257c <fail+0x10>
    2570:	001e1e13          	slli	t2,t2,0x1
    2574:	001e6e13          	ori	t2,t2,1
    2578:	51ee1073          	csrw	tohost,t2
    257c:	00000063          	b	257c <fail+0x10>

00002580 <pass>:
    2580:	51e0d073          	csrwi	tohost,1
    2584:	00000063          	b	2584 <pass+0x4>
    2588:	00000013          	nop
    258c:	00000013          	nop
