
rv32ui-p-xori:     file format elf32-littleriscv


Disassembly of section .text:

00002000 <_start>:
    2000:	00ff10b7          	lui	ra,0xff1
    2004:	f0008093          	addi	ra,ra,-256 # ff0f00 <begin_signature+0xfeed00>
    2008:	f0f0c193          	xori	s1,ra,-241
    200c:	ff00feb7          	lui	t3,0xff00f
    2010:	00fe8e93          	addi	t3,t3,15 # ff00f00f <begin_signature+0xff00ce0f>
    2014:	00200e13          	li	t2,2
    2018:	1dd19663          	bne	s1,t3,21e4 <fail>

0000201c <test_3>:
    201c:	0ff010b7          	lui	ra,0xff01
    2020:	ff008093          	addi	ra,ra,-16 # ff00ff0 <begin_signature+0xfefedf0>
    2024:	0f00c193          	xori	s1,ra,240
    2028:	0ff01eb7          	lui	t3,0xff01
    202c:	f00e8e93          	addi	t3,t3,-256 # ff00f00 <begin_signature+0xfefed00>
    2030:	00300e13          	li	t2,3
    2034:	1bd19863          	bne	s1,t3,21e4 <fail>

00002038 <test_4>:
    2038:	00ff10b7          	lui	ra,0xff1
    203c:	8ff08093          	addi	ra,ra,-1793 # ff08ff <begin_signature+0xfee6ff>
    2040:	70f0c193          	xori	s1,ra,1807
    2044:	00ff1eb7          	lui	t3,0xff1
    2048:	ff0e8e93          	addi	t3,t3,-16 # ff0ff0 <begin_signature+0xfeedf0>
    204c:	00400e13          	li	t2,4
    2050:	19d19a63          	bne	s1,t3,21e4 <fail>

00002054 <test_5>:
    2054:	f00ff0b7          	lui	ra,0xf00ff
    2058:	00f08093          	addi	ra,ra,15 # f00ff00f <begin_signature+0xf00fce0f>
    205c:	0f00c193          	xori	s1,ra,240
    2060:	f00ffeb7          	lui	t3,0xf00ff
    2064:	0ffe8e93          	addi	t3,t3,255 # f00ff0ff <begin_signature+0xf00fceff>
    2068:	00500e13          	li	t2,5
    206c:	17d19c63          	bne	s1,t3,21e4 <fail>

00002070 <test_6>:
    2070:	ff00f0b7          	lui	ra,0xff00f
    2074:	70008093          	addi	ra,ra,1792 # ff00f700 <begin_signature+0xff00d500>
    2078:	70f0c093          	xori	ra,ra,1807
    207c:	ff00feb7          	lui	t3,0xff00f
    2080:	00fe8e93          	addi	t3,t3,15 # ff00f00f <begin_signature+0xff00ce0f>
    2084:	00600e13          	li	t2,6
    2088:	15d09e63          	bne	ra,t3,21e4 <fail>

0000208c <test_7>:
    208c:	00000213          	li	s2,0
    2090:	0ff010b7          	lui	ra,0xff01
    2094:	ff008093          	addi	ra,ra,-16 # ff00ff0 <begin_signature+0xfefedf0>
    2098:	0f00c193          	xori	s1,ra,240
    209c:	00018313          	mv	s4,s1
    20a0:	00120213          	addi	s2,s2,1
    20a4:	00200293          	li	s3,2
    20a8:	fe5214e3          	bne	s2,s3,2090 <test_7+0x4>
    20ac:	0ff01eb7          	lui	t3,0xff01
    20b0:	f00e8e93          	addi	t3,t3,-256 # ff00f00 <begin_signature+0xfefed00>
    20b4:	00700e13          	li	t2,7
    20b8:	13d31663          	bne	s4,t3,21e4 <fail>

000020bc <test_8>:
    20bc:	00000213          	li	s2,0
    20c0:	00ff10b7          	lui	ra,0xff1
    20c4:	8ff08093          	addi	ra,ra,-1793 # ff08ff <begin_signature+0xfee6ff>
    20c8:	70f0c193          	xori	s1,ra,1807
    20cc:	00000013          	nop
    20d0:	00018313          	mv	s4,s1
    20d4:	00120213          	addi	s2,s2,1
    20d8:	00200293          	li	s3,2
    20dc:	fe5212e3          	bne	s2,s3,20c0 <test_8+0x4>
    20e0:	00ff1eb7          	lui	t3,0xff1
    20e4:	ff0e8e93          	addi	t3,t3,-16 # ff0ff0 <begin_signature+0xfeedf0>
    20e8:	00800e13          	li	t2,8
    20ec:	0fd31c63          	bne	s4,t3,21e4 <fail>

000020f0 <test_9>:
    20f0:	00000213          	li	s2,0
    20f4:	f00ff0b7          	lui	ra,0xf00ff
    20f8:	00f08093          	addi	ra,ra,15 # f00ff00f <begin_signature+0xf00fce0f>
    20fc:	0f00c193          	xori	s1,ra,240
    2100:	00000013          	nop
    2104:	00000013          	nop
    2108:	00018313          	mv	s4,s1
    210c:	00120213          	addi	s2,s2,1
    2110:	00200293          	li	s3,2
    2114:	fe5210e3          	bne	s2,s3,20f4 <test_9+0x4>
    2118:	f00ffeb7          	lui	t3,0xf00ff
    211c:	0ffe8e93          	addi	t3,t3,255 # f00ff0ff <begin_signature+0xf00fceff>
    2120:	00900e13          	li	t2,9
    2124:	0dd31063          	bne	s4,t3,21e4 <fail>

00002128 <test_10>:
    2128:	00000213          	li	s2,0
    212c:	0ff010b7          	lui	ra,0xff01
    2130:	ff008093          	addi	ra,ra,-16 # ff00ff0 <begin_signature+0xfefedf0>
    2134:	0f00c193          	xori	s1,ra,240
    2138:	00120213          	addi	s2,s2,1
    213c:	00200293          	li	s3,2
    2140:	fe5216e3          	bne	s2,s3,212c <test_10+0x4>
    2144:	0ff01eb7          	lui	t3,0xff01
    2148:	f00e8e93          	addi	t3,t3,-256 # ff00f00 <begin_signature+0xfefed00>
    214c:	00a00e13          	li	t2,10
    2150:	09d19a63          	bne	s1,t3,21e4 <fail>

00002154 <test_11>:
    2154:	00000213          	li	s2,0
    2158:	00ff10b7          	lui	ra,0xff1
    215c:	fff08093          	addi	ra,ra,-1 # ff0fff <begin_signature+0xfeedff>
    2160:	00000013          	nop
    2164:	00f0c193          	xori	s1,ra,15
    2168:	00120213          	addi	s2,s2,1
    216c:	00200293          	li	s3,2
    2170:	fe5214e3          	bne	s2,s3,2158 <test_11+0x4>
    2174:	00ff1eb7          	lui	t3,0xff1
    2178:	ff0e8e93          	addi	t3,t3,-16 # ff0ff0 <begin_signature+0xfeedf0>
    217c:	00b00e13          	li	t2,11
    2180:	07d19263          	bne	s1,t3,21e4 <fail>

00002184 <test_12>:
    2184:	00000213          	li	s2,0
    2188:	f00ff0b7          	lui	ra,0xf00ff
    218c:	00f08093          	addi	ra,ra,15 # f00ff00f <begin_signature+0xf00fce0f>
    2190:	00000013          	nop
    2194:	00000013          	nop
    2198:	0f00c193          	xori	s1,ra,240
    219c:	00120213          	addi	s2,s2,1
    21a0:	00200293          	li	s3,2
    21a4:	fe5212e3          	bne	s2,s3,2188 <test_12+0x4>
    21a8:	f00ffeb7          	lui	t3,0xf00ff
    21ac:	0ffe8e93          	addi	t3,t3,255 # f00ff0ff <begin_signature+0xf00fceff>
    21b0:	00c00e13          	li	t2,12
    21b4:	03d19863          	bne	s1,t3,21e4 <fail>

000021b8 <test_13>:
    21b8:	0f004093          	xori	ra,zero,240
    21bc:	0f000e93          	li	t3,240
    21c0:	00d00e13          	li	t2,13
    21c4:	03d09063          	bne	ra,t3,21e4 <fail>

000021c8 <test_14>:
    21c8:	00ff00b7          	lui	ra,0xff0
    21cc:	0ff08093          	addi	ra,ra,255 # ff00ff <begin_signature+0xfedeff>
    21d0:	70f0c013          	xori	zero,ra,1807
    21d4:	00000e93          	li	t3,0
    21d8:	00e00e13          	li	t2,14
    21dc:	01d01463          	bne	zero,t3,21e4 <fail>
    21e0:	01c01c63          	bne	zero,t2,21f8 <pass>

000021e4 <fail>:
    21e4:	000e0863          	beqz	t2,21f4 <fail+0x10>
    21e8:	001e1e13          	slli	t2,t2,0x1
    21ec:	001e6e13          	ori	t2,t2,1
    21f0:	51ee1073          	csrw	tohost,t2
    21f4:	00000063          	b	21f4 <fail+0x10>

000021f8 <pass>:
    21f8:	51e0d073          	csrwi	tohost,1
    21fc:	00000063          	b	21fc <pass+0x4>
