
rv32ui-p-or:     file format elf32-littleriscv


Disassembly of section .text:

00002000 <_start>:
    2000:	ff0100b7          	lui	ra,0xff010
    2004:	f0008093          	addi	ra,ra,-256 # ff00ff00 <begin_signature+0xff00da20>
    2008:	0f0f1137          	lui	s0,0xf0f1
    200c:	f0f10113          	addi	s0,s0,-241 # f0f0f0f <begin_signature+0xf0eea2f>
    2010:	0020e1b3          	or	s1,ra,s0
    2014:	ff100eb7          	lui	t3,0xff100
    2018:	f0fe8e93          	addi	t3,t3,-241 # ff0fff0f <begin_signature+0xff0fda2f>
    201c:	00200e13          	li	t2,2
    2020:	4bd19263          	bne	s1,t3,24c4 <fail>

00002024 <test_3>:
    2024:	0ff010b7          	lui	ra,0xff01
    2028:	ff008093          	addi	ra,ra,-16 # ff00ff0 <begin_signature+0xfefeb10>
    202c:	f0f0f137          	lui	s0,0xf0f0f
    2030:	0f010113          	addi	s0,s0,240 # f0f0f0f0 <begin_signature+0xf0f0cc10>
    2034:	0020e1b3          	or	s1,ra,s0
    2038:	fff10eb7          	lui	t3,0xfff10
    203c:	ff0e8e93          	addi	t3,t3,-16 # fff0fff0 <begin_signature+0xfff0db10>
    2040:	00300e13          	li	t2,3
    2044:	49d19063          	bne	s1,t3,24c4 <fail>

00002048 <test_4>:
    2048:	00ff00b7          	lui	ra,0xff0
    204c:	0ff08093          	addi	ra,ra,255 # ff00ff <begin_signature+0xfedc1f>
    2050:	0f0f1137          	lui	s0,0xf0f1
    2054:	f0f10113          	addi	s0,s0,-241 # f0f0f0f <begin_signature+0xf0eea2f>
    2058:	0020e1b3          	or	s1,ra,s0
    205c:	0fff1eb7          	lui	t3,0xfff1
    2060:	fffe8e93          	addi	t3,t3,-1 # fff0fff <begin_signature+0xffeeb1f>
    2064:	00400e13          	li	t2,4
    2068:	45d19e63          	bne	s1,t3,24c4 <fail>

0000206c <test_5>:
    206c:	f00ff0b7          	lui	ra,0xf00ff
    2070:	00f08093          	addi	ra,ra,15 # f00ff00f <begin_signature+0xf00fcb2f>
    2074:	f0f0f137          	lui	s0,0xf0f0f
    2078:	0f010113          	addi	s0,s0,240 # f0f0f0f0 <begin_signature+0xf0f0cc10>
    207c:	0020e1b3          	or	s1,ra,s0
    2080:	f0fffeb7          	lui	t3,0xf0fff
    2084:	0ffe8e93          	addi	t3,t3,255 # f0fff0ff <begin_signature+0xf0ffcc1f>
    2088:	00500e13          	li	t2,5
    208c:	43d19c63          	bne	s1,t3,24c4 <fail>

00002090 <test_6>:
    2090:	ff0100b7          	lui	ra,0xff010
    2094:	f0008093          	addi	ra,ra,-256 # ff00ff00 <begin_signature+0xff00da20>
    2098:	0f0f1137          	lui	s0,0xf0f1
    209c:	f0f10113          	addi	s0,s0,-241 # f0f0f0f <begin_signature+0xf0eea2f>
    20a0:	0020e0b3          	or	ra,ra,s0
    20a4:	ff100eb7          	lui	t3,0xff100
    20a8:	f0fe8e93          	addi	t3,t3,-241 # ff0fff0f <begin_signature+0xff0fda2f>
    20ac:	00600e13          	li	t2,6
    20b0:	41d09a63          	bne	ra,t3,24c4 <fail>

000020b4 <test_7>:
    20b4:	ff0100b7          	lui	ra,0xff010
    20b8:	f0008093          	addi	ra,ra,-256 # ff00ff00 <begin_signature+0xff00da20>
    20bc:	0f0f1137          	lui	s0,0xf0f1
    20c0:	f0f10113          	addi	s0,s0,-241 # f0f0f0f <begin_signature+0xf0eea2f>
    20c4:	0020e133          	or	s0,ra,s0
    20c8:	ff100eb7          	lui	t3,0xff100
    20cc:	f0fe8e93          	addi	t3,t3,-241 # ff0fff0f <begin_signature+0xff0fda2f>
    20d0:	00700e13          	li	t2,7
    20d4:	3fd11863          	bne	s0,t3,24c4 <fail>

000020d8 <test_8>:
    20d8:	ff0100b7          	lui	ra,0xff010
    20dc:	f0008093          	addi	ra,ra,-256 # ff00ff00 <begin_signature+0xff00da20>
    20e0:	0010e0b3          	or	ra,ra,ra
    20e4:	ff010eb7          	lui	t3,0xff010
    20e8:	f00e8e93          	addi	t3,t3,-256 # ff00ff00 <begin_signature+0xff00da20>
    20ec:	00800e13          	li	t2,8
    20f0:	3dd09a63          	bne	ra,t3,24c4 <fail>

000020f4 <test_9>:
    20f4:	00000213          	li	s2,0
    20f8:	ff0100b7          	lui	ra,0xff010
    20fc:	f0008093          	addi	ra,ra,-256 # ff00ff00 <begin_signature+0xff00da20>
    2100:	0f0f1137          	lui	s0,0xf0f1
    2104:	f0f10113          	addi	s0,s0,-241 # f0f0f0f <begin_signature+0xf0eea2f>
    2108:	0020e1b3          	or	s1,ra,s0
    210c:	00018313          	mv	s4,s1
    2110:	00120213          	addi	s2,s2,1
    2114:	00200293          	li	s3,2
    2118:	fe5210e3          	bne	s2,s3,20f8 <test_9+0x4>
    211c:	ff100eb7          	lui	t3,0xff100
    2120:	f0fe8e93          	addi	t3,t3,-241 # ff0fff0f <begin_signature+0xff0fda2f>
    2124:	00900e13          	li	t2,9
    2128:	39d31e63          	bne	s4,t3,24c4 <fail>

0000212c <test_10>:
    212c:	00000213          	li	s2,0
    2130:	0ff010b7          	lui	ra,0xff01
    2134:	ff008093          	addi	ra,ra,-16 # ff00ff0 <begin_signature+0xfefeb10>
    2138:	f0f0f137          	lui	s0,0xf0f0f
    213c:	0f010113          	addi	s0,s0,240 # f0f0f0f0 <begin_signature+0xf0f0cc10>
    2140:	0020e1b3          	or	s1,ra,s0
    2144:	00000013          	nop
    2148:	00018313          	mv	s4,s1
    214c:	00120213          	addi	s2,s2,1
    2150:	00200293          	li	s3,2
    2154:	fc521ee3          	bne	s2,s3,2130 <test_10+0x4>
    2158:	fff10eb7          	lui	t3,0xfff10
    215c:	ff0e8e93          	addi	t3,t3,-16 # fff0fff0 <begin_signature+0xfff0db10>
    2160:	00a00e13          	li	t2,10
    2164:	37d31063          	bne	s4,t3,24c4 <fail>

00002168 <test_11>:
    2168:	00000213          	li	s2,0
    216c:	00ff00b7          	lui	ra,0xff0
    2170:	0ff08093          	addi	ra,ra,255 # ff00ff <begin_signature+0xfedc1f>
    2174:	0f0f1137          	lui	s0,0xf0f1
    2178:	f0f10113          	addi	s0,s0,-241 # f0f0f0f <begin_signature+0xf0eea2f>
    217c:	0020e1b3          	or	s1,ra,s0
    2180:	00000013          	nop
    2184:	00000013          	nop
    2188:	00018313          	mv	s4,s1
    218c:	00120213          	addi	s2,s2,1
    2190:	00200293          	li	s3,2
    2194:	fc521ce3          	bne	s2,s3,216c <test_11+0x4>
    2198:	0fff1eb7          	lui	t3,0xfff1
    219c:	fffe8e93          	addi	t3,t3,-1 # fff0fff <begin_signature+0xffeeb1f>
    21a0:	00b00e13          	li	t2,11
    21a4:	33d31063          	bne	s4,t3,24c4 <fail>

000021a8 <test_12>:
    21a8:	00000213          	li	s2,0
    21ac:	ff0100b7          	lui	ra,0xff010
    21b0:	f0008093          	addi	ra,ra,-256 # ff00ff00 <begin_signature+0xff00da20>
    21b4:	0f0f1137          	lui	s0,0xf0f1
    21b8:	f0f10113          	addi	s0,s0,-241 # f0f0f0f <begin_signature+0xf0eea2f>
    21bc:	0020e1b3          	or	s1,ra,s0
    21c0:	00120213          	addi	s2,s2,1
    21c4:	00200293          	li	s3,2
    21c8:	fe5212e3          	bne	s2,s3,21ac <test_12+0x4>
    21cc:	ff100eb7          	lui	t3,0xff100
    21d0:	f0fe8e93          	addi	t3,t3,-241 # ff0fff0f <begin_signature+0xff0fda2f>
    21d4:	00c00e13          	li	t2,12
    21d8:	2fd19663          	bne	s1,t3,24c4 <fail>

000021dc <test_13>:
    21dc:	00000213          	li	s2,0
    21e0:	0ff010b7          	lui	ra,0xff01
    21e4:	ff008093          	addi	ra,ra,-16 # ff00ff0 <begin_signature+0xfefeb10>
    21e8:	f0f0f137          	lui	s0,0xf0f0f
    21ec:	0f010113          	addi	s0,s0,240 # f0f0f0f0 <begin_signature+0xf0f0cc10>
    21f0:	00000013          	nop
    21f4:	0020e1b3          	or	s1,ra,s0
    21f8:	00120213          	addi	s2,s2,1
    21fc:	00200293          	li	s3,2
    2200:	fe5210e3          	bne	s2,s3,21e0 <test_13+0x4>
    2204:	fff10eb7          	lui	t3,0xfff10
    2208:	ff0e8e93          	addi	t3,t3,-16 # fff0fff0 <begin_signature+0xfff0db10>
    220c:	00d00e13          	li	t2,13
    2210:	2bd19a63          	bne	s1,t3,24c4 <fail>

00002214 <test_14>:
    2214:	00000213          	li	s2,0
    2218:	00ff00b7          	lui	ra,0xff0
    221c:	0ff08093          	addi	ra,ra,255 # ff00ff <begin_signature+0xfedc1f>
    2220:	0f0f1137          	lui	s0,0xf0f1
    2224:	f0f10113          	addi	s0,s0,-241 # f0f0f0f <begin_signature+0xf0eea2f>
    2228:	00000013          	nop
    222c:	00000013          	nop
    2230:	0020e1b3          	or	s1,ra,s0
    2234:	00120213          	addi	s2,s2,1
    2238:	00200293          	li	s3,2
    223c:	fc521ee3          	bne	s2,s3,2218 <test_14+0x4>
    2240:	0fff1eb7          	lui	t3,0xfff1
    2244:	fffe8e93          	addi	t3,t3,-1 # fff0fff <begin_signature+0xffeeb1f>
    2248:	00e00e13          	li	t2,14
    224c:	27d19c63          	bne	s1,t3,24c4 <fail>

00002250 <test_15>:
    2250:	00000213          	li	s2,0
    2254:	ff0100b7          	lui	ra,0xff010
    2258:	f0008093          	addi	ra,ra,-256 # ff00ff00 <begin_signature+0xff00da20>
    225c:	00000013          	nop
    2260:	0f0f1137          	lui	s0,0xf0f1
    2264:	f0f10113          	addi	s0,s0,-241 # f0f0f0f <begin_signature+0xf0eea2f>
    2268:	0020e1b3          	or	s1,ra,s0
    226c:	00120213          	addi	s2,s2,1
    2270:	00200293          	li	s3,2
    2274:	fe5210e3          	bne	s2,s3,2254 <test_15+0x4>
    2278:	ff100eb7          	lui	t3,0xff100
    227c:	f0fe8e93          	addi	t3,t3,-241 # ff0fff0f <begin_signature+0xff0fda2f>
    2280:	00f00e13          	li	t2,15
    2284:	25d19063          	bne	s1,t3,24c4 <fail>

00002288 <test_16>:
    2288:	00000213          	li	s2,0
    228c:	0ff010b7          	lui	ra,0xff01
    2290:	ff008093          	addi	ra,ra,-16 # ff00ff0 <begin_signature+0xfefeb10>
    2294:	00000013          	nop
    2298:	f0f0f137          	lui	s0,0xf0f0f
    229c:	0f010113          	addi	s0,s0,240 # f0f0f0f0 <begin_signature+0xf0f0cc10>
    22a0:	00000013          	nop
    22a4:	0020e1b3          	or	s1,ra,s0
    22a8:	00120213          	addi	s2,s2,1
    22ac:	00200293          	li	s3,2
    22b0:	fc521ee3          	bne	s2,s3,228c <test_16+0x4>
    22b4:	fff10eb7          	lui	t3,0xfff10
    22b8:	ff0e8e93          	addi	t3,t3,-16 # fff0fff0 <begin_signature+0xfff0db10>
    22bc:	01000e13          	li	t2,16
    22c0:	21d19263          	bne	s1,t3,24c4 <fail>

000022c4 <test_17>:
    22c4:	00000213          	li	s2,0
    22c8:	00ff00b7          	lui	ra,0xff0
    22cc:	0ff08093          	addi	ra,ra,255 # ff00ff <begin_signature+0xfedc1f>
    22d0:	00000013          	nop
    22d4:	00000013          	nop
    22d8:	0f0f1137          	lui	s0,0xf0f1
    22dc:	f0f10113          	addi	s0,s0,-241 # f0f0f0f <begin_signature+0xf0eea2f>
    22e0:	0020e1b3          	or	s1,ra,s0
    22e4:	00120213          	addi	s2,s2,1
    22e8:	00200293          	li	s3,2
    22ec:	fc521ee3          	bne	s2,s3,22c8 <test_17+0x4>
    22f0:	0fff1eb7          	lui	t3,0xfff1
    22f4:	fffe8e93          	addi	t3,t3,-1 # fff0fff <begin_signature+0xffeeb1f>
    22f8:	01100e13          	li	t2,17
    22fc:	1dd19463          	bne	s1,t3,24c4 <fail>

00002300 <test_18>:
    2300:	00000213          	li	s2,0
    2304:	0f0f1137          	lui	s0,0xf0f1
    2308:	f0f10113          	addi	s0,s0,-241 # f0f0f0f <begin_signature+0xf0eea2f>
    230c:	ff0100b7          	lui	ra,0xff010
    2310:	f0008093          	addi	ra,ra,-256 # ff00ff00 <begin_signature+0xff00da20>
    2314:	0020e1b3          	or	s1,ra,s0
    2318:	00120213          	addi	s2,s2,1
    231c:	00200293          	li	s3,2
    2320:	fe5212e3          	bne	s2,s3,2304 <test_18+0x4>
    2324:	ff100eb7          	lui	t3,0xff100
    2328:	f0fe8e93          	addi	t3,t3,-241 # ff0fff0f <begin_signature+0xff0fda2f>
    232c:	01200e13          	li	t2,18
    2330:	19d19a63          	bne	s1,t3,24c4 <fail>

00002334 <test_19>:
    2334:	00000213          	li	s2,0
    2338:	f0f0f137          	lui	s0,0xf0f0f
    233c:	0f010113          	addi	s0,s0,240 # f0f0f0f0 <begin_signature+0xf0f0cc10>
    2340:	0ff010b7          	lui	ra,0xff01
    2344:	ff008093          	addi	ra,ra,-16 # ff00ff0 <begin_signature+0xfefeb10>
    2348:	00000013          	nop
    234c:	0020e1b3          	or	s1,ra,s0
    2350:	00120213          	addi	s2,s2,1
    2354:	00200293          	li	s3,2
    2358:	fe5210e3          	bne	s2,s3,2338 <test_19+0x4>
    235c:	fff10eb7          	lui	t3,0xfff10
    2360:	ff0e8e93          	addi	t3,t3,-16 # fff0fff0 <begin_signature+0xfff0db10>
    2364:	01300e13          	li	t2,19
    2368:	15d19e63          	bne	s1,t3,24c4 <fail>

0000236c <test_20>:
    236c:	00000213          	li	s2,0
    2370:	0f0f1137          	lui	s0,0xf0f1
    2374:	f0f10113          	addi	s0,s0,-241 # f0f0f0f <begin_signature+0xf0eea2f>
    2378:	00ff00b7          	lui	ra,0xff0
    237c:	0ff08093          	addi	ra,ra,255 # ff00ff <begin_signature+0xfedc1f>
    2380:	00000013          	nop
    2384:	00000013          	nop
    2388:	0020e1b3          	or	s1,ra,s0
    238c:	00120213          	addi	s2,s2,1
    2390:	00200293          	li	s3,2
    2394:	fc521ee3          	bne	s2,s3,2370 <test_20+0x4>
    2398:	0fff1eb7          	lui	t3,0xfff1
    239c:	fffe8e93          	addi	t3,t3,-1 # fff0fff <begin_signature+0xffeeb1f>
    23a0:	01400e13          	li	t2,20
    23a4:	13d19063          	bne	s1,t3,24c4 <fail>

000023a8 <test_21>:
    23a8:	00000213          	li	s2,0
    23ac:	0f0f1137          	lui	s0,0xf0f1
    23b0:	f0f10113          	addi	s0,s0,-241 # f0f0f0f <begin_signature+0xf0eea2f>
    23b4:	00000013          	nop
    23b8:	ff0100b7          	lui	ra,0xff010
    23bc:	f0008093          	addi	ra,ra,-256 # ff00ff00 <begin_signature+0xff00da20>
    23c0:	0020e1b3          	or	s1,ra,s0
    23c4:	00120213          	addi	s2,s2,1
    23c8:	00200293          	li	s3,2
    23cc:	fe5210e3          	bne	s2,s3,23ac <test_21+0x4>
    23d0:	ff100eb7          	lui	t3,0xff100
    23d4:	f0fe8e93          	addi	t3,t3,-241 # ff0fff0f <begin_signature+0xff0fda2f>
    23d8:	01500e13          	li	t2,21
    23dc:	0fd19463          	bne	s1,t3,24c4 <fail>

000023e0 <test_22>:
    23e0:	00000213          	li	s2,0
    23e4:	f0f0f137          	lui	s0,0xf0f0f
    23e8:	0f010113          	addi	s0,s0,240 # f0f0f0f0 <begin_signature+0xf0f0cc10>
    23ec:	00000013          	nop
    23f0:	0ff010b7          	lui	ra,0xff01
    23f4:	ff008093          	addi	ra,ra,-16 # ff00ff0 <begin_signature+0xfefeb10>
    23f8:	00000013          	nop
    23fc:	0020e1b3          	or	s1,ra,s0
    2400:	00120213          	addi	s2,s2,1
    2404:	00200293          	li	s3,2
    2408:	fc521ee3          	bne	s2,s3,23e4 <test_22+0x4>
    240c:	fff10eb7          	lui	t3,0xfff10
    2410:	ff0e8e93          	addi	t3,t3,-16 # fff0fff0 <begin_signature+0xfff0db10>
    2414:	01600e13          	li	t2,22
    2418:	0bd19663          	bne	s1,t3,24c4 <fail>

0000241c <test_23>:
    241c:	00000213          	li	s2,0
    2420:	0f0f1137          	lui	s0,0xf0f1
    2424:	f0f10113          	addi	s0,s0,-241 # f0f0f0f <begin_signature+0xf0eea2f>
    2428:	00000013          	nop
    242c:	00000013          	nop
    2430:	00ff00b7          	lui	ra,0xff0
    2434:	0ff08093          	addi	ra,ra,255 # ff00ff <begin_signature+0xfedc1f>
    2438:	0020e1b3          	or	s1,ra,s0
    243c:	00120213          	addi	s2,s2,1
    2440:	00200293          	li	s3,2
    2444:	fc521ee3          	bne	s2,s3,2420 <test_23+0x4>
    2448:	0fff1eb7          	lui	t3,0xfff1
    244c:	fffe8e93          	addi	t3,t3,-1 # fff0fff <begin_signature+0xffeeb1f>
    2450:	01700e13          	li	t2,23
    2454:	07d19863          	bne	s1,t3,24c4 <fail>

00002458 <test_24>:
    2458:	ff0100b7          	lui	ra,0xff010
    245c:	f0008093          	addi	ra,ra,-256 # ff00ff00 <begin_signature+0xff00da20>
    2460:	00106133          	or	s0,zero,ra
    2464:	ff010eb7          	lui	t3,0xff010
    2468:	f00e8e93          	addi	t3,t3,-256 # ff00ff00 <begin_signature+0xff00da20>
    246c:	01800e13          	li	t2,24
    2470:	05d11a63          	bne	s0,t3,24c4 <fail>

00002474 <test_25>:
    2474:	00ff00b7          	lui	ra,0xff0
    2478:	0ff08093          	addi	ra,ra,255 # ff00ff <begin_signature+0xfedc1f>
    247c:	0000e133          	or	s0,ra,zero
    2480:	00ff0eb7          	lui	t3,0xff0
    2484:	0ffe8e93          	addi	t3,t3,255 # ff00ff <begin_signature+0xfedc1f>
    2488:	01900e13          	li	t2,25
    248c:	03d11c63          	bne	s0,t3,24c4 <fail>

00002490 <test_26>:
    2490:	000060b3          	or	ra,zero,zero
    2494:	00000e93          	li	t3,0
    2498:	01a00e13          	li	t2,26
    249c:	03d09463          	bne	ra,t3,24c4 <fail>

000024a0 <test_27>:
    24a0:	111110b7          	lui	ra,0x11111
    24a4:	11108093          	addi	ra,ra,273 # 11111111 <begin_signature+0x1110ec31>
    24a8:	22222137          	lui	s0,0x22222
    24ac:	22210113          	addi	s0,s0,546 # 22222222 <begin_signature+0x2221fd42>
    24b0:	0020e033          	or	zero,ra,s0
    24b4:	00000e93          	li	t3,0
    24b8:	01b00e13          	li	t2,27
    24bc:	01d01463          	bne	zero,t3,24c4 <fail>
    24c0:	01c01c63          	bne	zero,t2,24d8 <pass>

000024c4 <fail>:
    24c4:	000e0863          	beqz	t2,24d4 <fail+0x10>
    24c8:	001e1e13          	slli	t2,t2,0x1
    24cc:	001e6e13          	ori	t2,t2,1
    24d0:	51ee1073          	csrw	tohost,t2
    24d4:	00000063          	b	24d4 <fail+0x10>

000024d8 <pass>:
    24d8:	51e0d073          	csrwi	tohost,1
    24dc:	00000063          	b	24dc <pass+0x4>
