
rv32ui-p-mul:     file format elf32-littleriscv


Disassembly of section .text:

00002000 <_start>:
    2000:	000080b7          	lui	ra,0x8
    2004:	e0008093          	addi	ra,ra,-512 # 7e00 <begin_signature+0x5970>
    2008:	b6db7137          	lui	s0,0xb6db7
    200c:	db710113          	addi	s0,s0,-585 # b6db6db7 <begin_signature+0xb6db4927>
    2010:	022081b3          	mul	s1,ra,s0
    2014:	00001eb7          	lui	t3,0x1
    2018:	200e8e93          	addi	t3,t3,512 # 1200 <_start-0xe00>
    201c:	02000e13          	li	t2,32
    2020:	45d19463          	bne	s1,t3,2468 <fail>

00002024 <test_33>:
    2024:	000080b7          	lui	ra,0x8
    2028:	fc008093          	addi	ra,ra,-64 # 7fc0 <begin_signature+0x5b30>
    202c:	b6db7137          	lui	s0,0xb6db7
    2030:	db710113          	addi	s0,s0,-585 # b6db6db7 <begin_signature+0xb6db4927>
    2034:	022081b3          	mul	s1,ra,s0
    2038:	00001eb7          	lui	t3,0x1
    203c:	240e8e93          	addi	t3,t3,576 # 1240 <_start-0xdc0>
    2040:	02100e13          	li	t2,33
    2044:	43d19263          	bne	s1,t3,2468 <fail>

00002048 <test_2>:
    2048:	00000093          	li	ra,0
    204c:	00000113          	li	s0,0
    2050:	022081b3          	mul	s1,ra,s0
    2054:	00000e93          	li	t3,0
    2058:	00200e13          	li	t2,2
    205c:	41d19663          	bne	s1,t3,2468 <fail>

00002060 <test_3>:
    2060:	00100093          	li	ra,1
    2064:	00100113          	li	s0,1
    2068:	022081b3          	mul	s1,ra,s0
    206c:	00100e93          	li	t3,1
    2070:	00300e13          	li	t2,3
    2074:	3fd19a63          	bne	s1,t3,2468 <fail>

00002078 <test_4>:
    2078:	00300093          	li	ra,3
    207c:	00700113          	li	s0,7
    2080:	022081b3          	mul	s1,ra,s0
    2084:	01500e93          	li	t3,21
    2088:	00400e13          	li	t2,4
    208c:	3dd19e63          	bne	s1,t3,2468 <fail>

00002090 <test_5>:
    2090:	00000093          	li	ra,0
    2094:	ffff8137          	lui	s0,0xffff8
    2098:	022081b3          	mul	s1,ra,s0
    209c:	00000e93          	li	t3,0
    20a0:	00500e13          	li	t2,5
    20a4:	3dd19263          	bne	s1,t3,2468 <fail>

000020a8 <test_6>:
    20a8:	800000b7          	lui	ra,0x80000
    20ac:	00000113          	li	s0,0
    20b0:	022081b3          	mul	s1,ra,s0
    20b4:	00000e93          	li	t3,0
    20b8:	00600e13          	li	t2,6
    20bc:	3bd19663          	bne	s1,t3,2468 <fail>

000020c0 <test_7>:
    20c0:	800000b7          	lui	ra,0x80000
    20c4:	ffff8137          	lui	s0,0xffff8
    20c8:	022081b3          	mul	s1,ra,s0
    20cc:	00000e93          	li	t3,0
    20d0:	00700e13          	li	t2,7
    20d4:	39d19a63          	bne	s1,t3,2468 <fail>

000020d8 <test_30>:
    20d8:	aaaab0b7          	lui	ra,0xaaaab
    20dc:	aab08093          	addi	ra,ra,-1365 # aaaaaaab <begin_signature+0xaaaa861b>
    20e0:	00030137          	lui	s0,0x30
    20e4:	e7d10113          	addi	s0,s0,-387 # 2fe7d <begin_signature+0x2d9ed>
    20e8:	022081b3          	mul	s1,ra,s0
    20ec:	00010eb7          	lui	t3,0x10
    20f0:	f7fe8e93          	addi	t3,t3,-129 # ff7f <begin_signature+0xdaef>
    20f4:	01e00e13          	li	t2,30
    20f8:	37d19863          	bne	s1,t3,2468 <fail>

000020fc <test_31>:
    20fc:	000300b7          	lui	ra,0x30
    2100:	e7d08093          	addi	ra,ra,-387 # 2fe7d <begin_signature+0x2d9ed>
    2104:	aaaab137          	lui	s0,0xaaaab
    2108:	aab10113          	addi	s0,s0,-1365 # aaaaaaab <begin_signature+0xaaaa861b>
    210c:	022081b3          	mul	s1,ra,s0
    2110:	00010eb7          	lui	t3,0x10
    2114:	f7fe8e93          	addi	t3,t3,-129 # ff7f <begin_signature+0xdaef>
    2118:	01f00e13          	li	t2,31
    211c:	35d19663          	bne	s1,t3,2468 <fail>

00002120 <test_8>:
    2120:	00d00093          	li	ra,13
    2124:	00b00113          	li	s0,11
    2128:	022080b3          	mul	ra,ra,s0
    212c:	08f00e93          	li	t3,143
    2130:	00800e13          	li	t2,8
    2134:	33d09a63          	bne	ra,t3,2468 <fail>

00002138 <test_9>:
    2138:	00e00093          	li	ra,14
    213c:	00b00113          	li	s0,11
    2140:	02208133          	mul	s0,ra,s0
    2144:	09a00e93          	li	t3,154
    2148:	00900e13          	li	t2,9
    214c:	31d11e63          	bne	s0,t3,2468 <fail>

00002150 <test_10>:
    2150:	00d00093          	li	ra,13
    2154:	021080b3          	mul	ra,ra,ra
    2158:	0a900e93          	li	t3,169
    215c:	00a00e13          	li	t2,10
    2160:	31d09463          	bne	ra,t3,2468 <fail>

00002164 <test_11>:
    2164:	00000213          	li	s2,0
    2168:	00d00093          	li	ra,13
    216c:	00b00113          	li	s0,11
    2170:	022081b3          	mul	s1,ra,s0
    2174:	00018313          	mv	s4,s1
    2178:	00120213          	addi	s2,s2,1
    217c:	00200293          	li	s3,2
    2180:	fe5214e3          	bne	s2,s3,2168 <test_11+0x4>
    2184:	08f00e93          	li	t3,143
    2188:	00b00e13          	li	t2,11
    218c:	2dd31e63          	bne	s4,t3,2468 <fail>

00002190 <test_12>:
    2190:	00000213          	li	s2,0
    2194:	00e00093          	li	ra,14
    2198:	00b00113          	li	s0,11
    219c:	022081b3          	mul	s1,ra,s0
    21a0:	00000013          	nop
    21a4:	00018313          	mv	s4,s1
    21a8:	00120213          	addi	s2,s2,1
    21ac:	00200293          	li	s3,2
    21b0:	fe5212e3          	bne	s2,s3,2194 <test_12+0x4>
    21b4:	09a00e93          	li	t3,154
    21b8:	00c00e13          	li	t2,12
    21bc:	2bd31663          	bne	s4,t3,2468 <fail>

000021c0 <test_13>:
    21c0:	00000213          	li	s2,0
    21c4:	00f00093          	li	ra,15
    21c8:	00b00113          	li	s0,11
    21cc:	022081b3          	mul	s1,ra,s0
    21d0:	00000013          	nop
    21d4:	00000013          	nop
    21d8:	00018313          	mv	s4,s1
    21dc:	00120213          	addi	s2,s2,1
    21e0:	00200293          	li	s3,2
    21e4:	fe5210e3          	bne	s2,s3,21c4 <test_13+0x4>
    21e8:	0a500e93          	li	t3,165
    21ec:	00d00e13          	li	t2,13
    21f0:	27d31c63          	bne	s4,t3,2468 <fail>

000021f4 <test_14>:
    21f4:	00000213          	li	s2,0
    21f8:	00d00093          	li	ra,13
    21fc:	00b00113          	li	s0,11
    2200:	022081b3          	mul	s1,ra,s0
    2204:	00120213          	addi	s2,s2,1
    2208:	00200293          	li	s3,2
    220c:	fe5216e3          	bne	s2,s3,21f8 <test_14+0x4>
    2210:	08f00e93          	li	t3,143
    2214:	00e00e13          	li	t2,14
    2218:	25d19863          	bne	s1,t3,2468 <fail>

0000221c <test_15>:
    221c:	00000213          	li	s2,0
    2220:	00e00093          	li	ra,14
    2224:	00b00113          	li	s0,11
    2228:	00000013          	nop
    222c:	022081b3          	mul	s1,ra,s0
    2230:	00120213          	addi	s2,s2,1
    2234:	00200293          	li	s3,2
    2238:	fe5214e3          	bne	s2,s3,2220 <test_15+0x4>
    223c:	09a00e93          	li	t3,154
    2240:	00f00e13          	li	t2,15
    2244:	23d19263          	bne	s1,t3,2468 <fail>

00002248 <test_16>:
    2248:	00000213          	li	s2,0
    224c:	00f00093          	li	ra,15
    2250:	00b00113          	li	s0,11
    2254:	00000013          	nop
    2258:	00000013          	nop
    225c:	022081b3          	mul	s1,ra,s0
    2260:	00120213          	addi	s2,s2,1
    2264:	00200293          	li	s3,2
    2268:	fe5212e3          	bne	s2,s3,224c <test_16+0x4>
    226c:	0a500e93          	li	t3,165
    2270:	01000e13          	li	t2,16
    2274:	1fd19a63          	bne	s1,t3,2468 <fail>

00002278 <test_17>:
    2278:	00000213          	li	s2,0
    227c:	00d00093          	li	ra,13
    2280:	00000013          	nop
    2284:	00b00113          	li	s0,11
    2288:	022081b3          	mul	s1,ra,s0
    228c:	00120213          	addi	s2,s2,1
    2290:	00200293          	li	s3,2
    2294:	fe5214e3          	bne	s2,s3,227c <test_17+0x4>
    2298:	08f00e93          	li	t3,143
    229c:	01100e13          	li	t2,17
    22a0:	1dd19463          	bne	s1,t3,2468 <fail>

000022a4 <test_18>:
    22a4:	00000213          	li	s2,0
    22a8:	00e00093          	li	ra,14
    22ac:	00000013          	nop
    22b0:	00b00113          	li	s0,11
    22b4:	00000013          	nop
    22b8:	022081b3          	mul	s1,ra,s0
    22bc:	00120213          	addi	s2,s2,1
    22c0:	00200293          	li	s3,2
    22c4:	fe5212e3          	bne	s2,s3,22a8 <test_18+0x4>
    22c8:	09a00e93          	li	t3,154
    22cc:	01200e13          	li	t2,18
    22d0:	19d19c63          	bne	s1,t3,2468 <fail>

000022d4 <test_19>:
    22d4:	00000213          	li	s2,0
    22d8:	00f00093          	li	ra,15
    22dc:	00000013          	nop
    22e0:	00000013          	nop
    22e4:	00b00113          	li	s0,11
    22e8:	022081b3          	mul	s1,ra,s0
    22ec:	00120213          	addi	s2,s2,1
    22f0:	00200293          	li	s3,2
    22f4:	fe5212e3          	bne	s2,s3,22d8 <test_19+0x4>
    22f8:	0a500e93          	li	t3,165
    22fc:	01300e13          	li	t2,19
    2300:	17d19463          	bne	s1,t3,2468 <fail>

00002304 <test_20>:
    2304:	00000213          	li	s2,0
    2308:	00b00113          	li	s0,11
    230c:	00d00093          	li	ra,13
    2310:	022081b3          	mul	s1,ra,s0
    2314:	00120213          	addi	s2,s2,1
    2318:	00200293          	li	s3,2
    231c:	fe5216e3          	bne	s2,s3,2308 <test_20+0x4>
    2320:	08f00e93          	li	t3,143
    2324:	01400e13          	li	t2,20
    2328:	15d19063          	bne	s1,t3,2468 <fail>

0000232c <test_21>:
    232c:	00000213          	li	s2,0
    2330:	00b00113          	li	s0,11
    2334:	00e00093          	li	ra,14
    2338:	00000013          	nop
    233c:	022081b3          	mul	s1,ra,s0
    2340:	00120213          	addi	s2,s2,1
    2344:	00200293          	li	s3,2
    2348:	fe5214e3          	bne	s2,s3,2330 <test_21+0x4>
    234c:	09a00e93          	li	t3,154
    2350:	01500e13          	li	t2,21
    2354:	11d19a63          	bne	s1,t3,2468 <fail>

00002358 <test_22>:
    2358:	00000213          	li	s2,0
    235c:	00b00113          	li	s0,11
    2360:	00f00093          	li	ra,15
    2364:	00000013          	nop
    2368:	00000013          	nop
    236c:	022081b3          	mul	s1,ra,s0
    2370:	00120213          	addi	s2,s2,1
    2374:	00200293          	li	s3,2
    2378:	fe5212e3          	bne	s2,s3,235c <test_22+0x4>
    237c:	0a500e93          	li	t3,165
    2380:	01600e13          	li	t2,22
    2384:	0fd19263          	bne	s1,t3,2468 <fail>

00002388 <test_23>:
    2388:	00000213          	li	s2,0
    238c:	00b00113          	li	s0,11
    2390:	00000013          	nop
    2394:	00d00093          	li	ra,13
    2398:	022081b3          	mul	s1,ra,s0
    239c:	00120213          	addi	s2,s2,1
    23a0:	00200293          	li	s3,2
    23a4:	fe5214e3          	bne	s2,s3,238c <test_23+0x4>
    23a8:	08f00e93          	li	t3,143
    23ac:	01700e13          	li	t2,23
    23b0:	0bd19c63          	bne	s1,t3,2468 <fail>

000023b4 <test_24>:
    23b4:	00000213          	li	s2,0
    23b8:	00b00113          	li	s0,11
    23bc:	00000013          	nop
    23c0:	00e00093          	li	ra,14
    23c4:	00000013          	nop
    23c8:	022081b3          	mul	s1,ra,s0
    23cc:	00120213          	addi	s2,s2,1
    23d0:	00200293          	li	s3,2
    23d4:	fe5212e3          	bne	s2,s3,23b8 <test_24+0x4>
    23d8:	09a00e93          	li	t3,154
    23dc:	01800e13          	li	t2,24
    23e0:	09d19463          	bne	s1,t3,2468 <fail>

000023e4 <test_25>:
    23e4:	00000213          	li	s2,0
    23e8:	00b00113          	li	s0,11
    23ec:	00000013          	nop
    23f0:	00000013          	nop
    23f4:	00f00093          	li	ra,15
    23f8:	022081b3          	mul	s1,ra,s0
    23fc:	00120213          	addi	s2,s2,1
    2400:	00200293          	li	s3,2
    2404:	fe5212e3          	bne	s2,s3,23e8 <test_25+0x4>
    2408:	0a500e93          	li	t3,165
    240c:	01900e13          	li	t2,25
    2410:	05d19c63          	bne	s1,t3,2468 <fail>

00002414 <test_26>:
    2414:	01f00093          	li	ra,31
    2418:	02100133          	mul	s0,zero,ra
    241c:	00000e93          	li	t3,0
    2420:	01a00e13          	li	t2,26
    2424:	05d11263          	bne	s0,t3,2468 <fail>

00002428 <test_27>:
    2428:	02000093          	li	ra,32
    242c:	02008133          	mul	s0,ra,zero
    2430:	00000e93          	li	t3,0
    2434:	01b00e13          	li	t2,27
    2438:	03d11863          	bne	s0,t3,2468 <fail>

0000243c <test_28>:
    243c:	020000b3          	mul	ra,zero,zero
    2440:	00000e93          	li	t3,0
    2444:	01c00e13          	li	t2,28
    2448:	03d09063          	bne	ra,t3,2468 <fail>

0000244c <test_29>:
    244c:	02100093          	li	ra,33
    2450:	02200113          	li	s0,34
    2454:	02208033          	mul	zero,ra,s0
    2458:	00000e93          	li	t3,0
    245c:	01d00e13          	li	t2,29
    2460:	01d01463          	bne	zero,t3,2468 <fail>
    2464:	01c01c63          	bne	zero,t2,247c <pass>

00002468 <fail>:
    2468:	000e0863          	beqz	t2,2478 <fail+0x10>
    246c:	001e1e13          	slli	t2,t2,0x1
    2470:	001e6e13          	ori	t2,t2,1
    2474:	51ee1073          	csrw	tohost,t2
    2478:	00000063          	b	2478 <fail+0x10>

0000247c <pass>:
    247c:	51e0d073          	csrwi	tohost,1
    2480:	00000063          	b	2480 <pass+0x4>
    2484:	00000013          	nop
    2488:	00000013          	nop
    248c:	00000013          	nop
