
rv32ui-p-andi:     file format elf32-littleriscv


Disassembly of section .text:

00002000 <_start>:
    2000:	ff0100b7          	lui	ra,0xff010
    2004:	f0008093          	addi	ra,ra,-256 # ff00ff00 <begin_signature+0xff00dd20>
    2008:	f0f0f193          	andi	s1,ra,-241
    200c:	ff010eb7          	lui	t3,0xff010
    2010:	f00e8e93          	addi	t3,t3,-256 # ff00ff00 <begin_signature+0xff00dd20>
    2014:	00200e13          	li	t2,2
    2018:	1bd19463          	bne	s1,t3,21c0 <fail>

0000201c <test_3>:
    201c:	0ff010b7          	lui	ra,0xff01
    2020:	ff008093          	addi	ra,ra,-16 # ff00ff0 <begin_signature+0xfefee10>
    2024:	0f00f193          	andi	s1,ra,240
    2028:	0f000e93          	li	t3,240
    202c:	00300e13          	li	t2,3
    2030:	19d19863          	bne	s1,t3,21c0 <fail>

00002034 <test_4>:
    2034:	00ff00b7          	lui	ra,0xff0
    2038:	0ff08093          	addi	ra,ra,255 # ff00ff <begin_signature+0xfedf1f>
    203c:	70f0f193          	andi	s1,ra,1807
    2040:	00f00e93          	li	t3,15
    2044:	00400e13          	li	t2,4
    2048:	17d19c63          	bne	s1,t3,21c0 <fail>

0000204c <test_5>:
    204c:	f00ff0b7          	lui	ra,0xf00ff
    2050:	00f08093          	addi	ra,ra,15 # f00ff00f <begin_signature+0xf00fce2f>
    2054:	0f00f193          	andi	s1,ra,240
    2058:	00000e93          	li	t3,0
    205c:	00500e13          	li	t2,5
    2060:	17d19063          	bne	s1,t3,21c0 <fail>

00002064 <test_6>:
    2064:	ff0100b7          	lui	ra,0xff010
    2068:	f0008093          	addi	ra,ra,-256 # ff00ff00 <begin_signature+0xff00dd20>
    206c:	0f00f093          	andi	ra,ra,240
    2070:	00000e93          	li	t3,0
    2074:	00600e13          	li	t2,6
    2078:	15d09463          	bne	ra,t3,21c0 <fail>

0000207c <test_7>:
    207c:	00000213          	li	s2,0
    2080:	0ff010b7          	lui	ra,0xff01
    2084:	ff008093          	addi	ra,ra,-16 # ff00ff0 <begin_signature+0xfefee10>
    2088:	70f0f193          	andi	s1,ra,1807
    208c:	00018313          	mv	s4,s1
    2090:	00120213          	addi	s2,s2,1
    2094:	00200293          	li	s3,2
    2098:	fe5214e3          	bne	s2,s3,2080 <test_7+0x4>
    209c:	70000e93          	li	t3,1792
    20a0:	00700e13          	li	t2,7
    20a4:	11d31e63          	bne	s4,t3,21c0 <fail>

000020a8 <test_8>:
    20a8:	00000213          	li	s2,0
    20ac:	00ff00b7          	lui	ra,0xff0
    20b0:	0ff08093          	addi	ra,ra,255 # ff00ff <begin_signature+0xfedf1f>
    20b4:	0f00f193          	andi	s1,ra,240
    20b8:	00000013          	nop
    20bc:	00018313          	mv	s4,s1
    20c0:	00120213          	addi	s2,s2,1
    20c4:	00200293          	li	s3,2
    20c8:	fe5212e3          	bne	s2,s3,20ac <test_8+0x4>
    20cc:	0f000e93          	li	t3,240
    20d0:	00800e13          	li	t2,8
    20d4:	0fd31663          	bne	s4,t3,21c0 <fail>

000020d8 <test_9>:
    20d8:	00000213          	li	s2,0
    20dc:	f00ff0b7          	lui	ra,0xf00ff
    20e0:	00f08093          	addi	ra,ra,15 # f00ff00f <begin_signature+0xf00fce2f>
    20e4:	f0f0f193          	andi	s1,ra,-241
    20e8:	00000013          	nop
    20ec:	00000013          	nop
    20f0:	00018313          	mv	s4,s1
    20f4:	00120213          	addi	s2,s2,1
    20f8:	00200293          	li	s3,2
    20fc:	fe5210e3          	bne	s2,s3,20dc <test_9+0x4>
    2100:	f00ffeb7          	lui	t3,0xf00ff
    2104:	00fe8e93          	addi	t3,t3,15 # f00ff00f <begin_signature+0xf00fce2f>
    2108:	00900e13          	li	t2,9
    210c:	0bd31a63          	bne	s4,t3,21c0 <fail>

00002110 <test_10>:
    2110:	00000213          	li	s2,0
    2114:	0ff010b7          	lui	ra,0xff01
    2118:	ff008093          	addi	ra,ra,-16 # ff00ff0 <begin_signature+0xfefee10>
    211c:	70f0f193          	andi	s1,ra,1807
    2120:	00120213          	addi	s2,s2,1
    2124:	00200293          	li	s3,2
    2128:	fe5216e3          	bne	s2,s3,2114 <test_10+0x4>
    212c:	70000e93          	li	t3,1792
    2130:	00a00e13          	li	t2,10
    2134:	09d19663          	bne	s1,t3,21c0 <fail>

00002138 <test_11>:
    2138:	00000213          	li	s2,0
    213c:	00ff00b7          	lui	ra,0xff0
    2140:	0ff08093          	addi	ra,ra,255 # ff00ff <begin_signature+0xfedf1f>
    2144:	00000013          	nop
    2148:	0f00f193          	andi	s1,ra,240
    214c:	00120213          	addi	s2,s2,1
    2150:	00200293          	li	s3,2
    2154:	fe5214e3          	bne	s2,s3,213c <test_11+0x4>
    2158:	0f000e93          	li	t3,240
    215c:	00b00e13          	li	t2,11
    2160:	07d19063          	bne	s1,t3,21c0 <fail>

00002164 <test_12>:
    2164:	00000213          	li	s2,0
    2168:	f00ff0b7          	lui	ra,0xf00ff
    216c:	00f08093          	addi	ra,ra,15 # f00ff00f <begin_signature+0xf00fce2f>
    2170:	00000013          	nop
    2174:	00000013          	nop
    2178:	70f0f193          	andi	s1,ra,1807
    217c:	00120213          	addi	s2,s2,1
    2180:	00200293          	li	s3,2
    2184:	fe5212e3          	bne	s2,s3,2168 <test_12+0x4>
    2188:	00f00e93          	li	t3,15
    218c:	00c00e13          	li	t2,12
    2190:	03d19863          	bne	s1,t3,21c0 <fail>

00002194 <test_13>:
    2194:	0f007093          	andi	ra,zero,240
    2198:	00000e93          	li	t3,0
    219c:	00d00e13          	li	t2,13
    21a0:	03d09063          	bne	ra,t3,21c0 <fail>

000021a4 <test_14>:
    21a4:	00ff00b7          	lui	ra,0xff0
    21a8:	0ff08093          	addi	ra,ra,255 # ff00ff <begin_signature+0xfedf1f>
    21ac:	70f0f013          	andi	zero,ra,1807
    21b0:	00000e93          	li	t3,0
    21b4:	00e00e13          	li	t2,14
    21b8:	01d01463          	bne	zero,t3,21c0 <fail>
    21bc:	01c01c63          	bne	zero,t2,21d4 <pass>

000021c0 <fail>:
    21c0:	000e0863          	beqz	t2,21d0 <fail+0x10>
    21c4:	001e1e13          	slli	t2,t2,0x1
    21c8:	001e6e13          	ori	t2,t2,1
    21cc:	51ee1073          	csrw	tohost,t2
    21d0:	00000063          	b	21d0 <fail+0x10>

000021d4 <pass>:
    21d4:	51e0d073          	csrwi	tohost,1
    21d8:	00000063          	b	21d8 <pass+0x4>
    21dc:	00000013          	nop
