
rv32ui-p-sb:     file format elf32-littleriscv


Disassembly of section .text:

00002000 <_start>:
    2000:	00000097          	auipc	ra,0x0
    2004:	41008093          	addi	ra,ra,1040 # 2410 <begin_signature>
    2008:	faa00113          	li	s0,-86
    200c:	00208023          	sb	s0,0(ra)
    2010:	00008183          	lb	s1,0(ra)
    2014:	faa00e93          	li	t3,-86
    2018:	00200e13          	li	t2,2
    201c:	3dd19c63          	bne	s1,t3,23f4 <fail>

00002020 <test_3>:
    2020:	00000097          	auipc	ra,0x0
    2024:	3f008093          	addi	ra,ra,1008 # 2410 <begin_signature>
    2028:	00000113          	li	s0,0
    202c:	002080a3          	sb	s0,1(ra)
    2030:	00108183          	lb	s1,1(ra)
    2034:	00000e93          	li	t3,0
    2038:	00300e13          	li	t2,3
    203c:	3bd19c63          	bne	s1,t3,23f4 <fail>

00002040 <test_4>:
    2040:	00000097          	auipc	ra,0x0
    2044:	3d008093          	addi	ra,ra,976 # 2410 <begin_signature>
    2048:	fffff137          	lui	s0,0xfffff
    204c:	fa010113          	addi	s0,s0,-96 # ffffefa0 <_end+0xffffcb80>
    2050:	00208123          	sb	s0,2(ra)
    2054:	00209183          	lh	s1,2(ra)
    2058:	fffffeb7          	lui	t3,0xfffff
    205c:	fa0e8e93          	addi	t3,t3,-96 # ffffefa0 <_end+0xffffcb80>
    2060:	00400e13          	li	t2,4
    2064:	39d19863          	bne	s1,t3,23f4 <fail>

00002068 <test_5>:
    2068:	00000097          	auipc	ra,0x0
    206c:	3a808093          	addi	ra,ra,936 # 2410 <begin_signature>
    2070:	00a00113          	li	s0,10
    2074:	002081a3          	sb	s0,3(ra)
    2078:	00308183          	lb	s1,3(ra)
    207c:	00a00e93          	li	t3,10
    2080:	00500e13          	li	t2,5
    2084:	37d19863          	bne	s1,t3,23f4 <fail>

00002088 <test_6>:
    2088:	00000097          	auipc	ra,0x0
    208c:	38f08093          	addi	ra,ra,911 # 2417 <tdat8>
    2090:	faa00113          	li	s0,-86
    2094:	fe208ea3          	sb	s0,-3(ra)
    2098:	ffd08183          	lb	s1,-3(ra)
    209c:	faa00e93          	li	t3,-86
    20a0:	00600e13          	li	t2,6
    20a4:	35d19863          	bne	s1,t3,23f4 <fail>

000020a8 <test_7>:
    20a8:	00000097          	auipc	ra,0x0
    20ac:	36f08093          	addi	ra,ra,879 # 2417 <tdat8>
    20b0:	00000113          	li	s0,0
    20b4:	fe208f23          	sb	s0,-2(ra)
    20b8:	ffe08183          	lb	s1,-2(ra)
    20bc:	00000e93          	li	t3,0
    20c0:	00700e13          	li	t2,7
    20c4:	33d19863          	bne	s1,t3,23f4 <fail>

000020c8 <test_8>:
    20c8:	00000097          	auipc	ra,0x0
    20cc:	34f08093          	addi	ra,ra,847 # 2417 <tdat8>
    20d0:	fa000113          	li	s0,-96
    20d4:	fe208fa3          	sb	s0,-1(ra)
    20d8:	fff08183          	lb	s1,-1(ra)
    20dc:	fa000e93          	li	t3,-96
    20e0:	00800e13          	li	t2,8
    20e4:	31d19863          	bne	s1,t3,23f4 <fail>

000020e8 <test_9>:
    20e8:	00000097          	auipc	ra,0x0
    20ec:	32f08093          	addi	ra,ra,815 # 2417 <tdat8>
    20f0:	00a00113          	li	s0,10
    20f4:	00208023          	sb	s0,0(ra)
    20f8:	00008183          	lb	s1,0(ra)
    20fc:	00a00e93          	li	t3,10
    2100:	00900e13          	li	t2,9
    2104:	2fd19863          	bne	s1,t3,23f4 <fail>

00002108 <test_10>:
    2108:	00000097          	auipc	ra,0x0
    210c:	31008093          	addi	ra,ra,784 # 2418 <tdat9>
    2110:	12345137          	lui	s0,0x12345
    2114:	67810113          	addi	s0,s0,1656 # 12345678 <_end+0x12343258>
    2118:	fe008213          	addi	s2,ra,-32
    211c:	02220023          	sb	s0,32(s2)
    2120:	00008183          	lb	s1,0(ra)
    2124:	07800e93          	li	t3,120
    2128:	00a00e13          	li	t2,10
    212c:	2dd19463          	bne	s1,t3,23f4 <fail>

00002130 <test_11>:
    2130:	00000097          	auipc	ra,0x0
    2134:	2e808093          	addi	ra,ra,744 # 2418 <tdat9>
    2138:	00003137          	lui	s0,0x3
    213c:	09810113          	addi	s0,s0,152 # 3098 <_end+0xc78>
    2140:	ffa08093          	addi	ra,ra,-6
    2144:	002083a3          	sb	s0,7(ra)
    2148:	00000217          	auipc	s2,0x0
    214c:	2d120213          	addi	s2,s2,721 # 2419 <tdat10>
    2150:	00020183          	lb	s1,0(s2)
    2154:	f9800e93          	li	t3,-104
    2158:	00b00e13          	li	t2,11
    215c:	29d19c63          	bne	s1,t3,23f4 <fail>

00002160 <test_12>:
    2160:	00c00e13          	li	t2,12
    2164:	00000213          	li	s2,0
    2168:	fdd00093          	li	ra,-35
    216c:	00000117          	auipc	s0,0x0
    2170:	2a410113          	addi	s0,s0,676 # 2410 <begin_signature>
    2174:	00110023          	sb	ra,0(s0)
    2178:	00010183          	lb	s1,0(s0)
    217c:	fdd00e93          	li	t3,-35
    2180:	27d19a63          	bne	s1,t3,23f4 <fail>
    2184:	00120213          	addi	s2,s2,1
    2188:	00200293          	li	s3,2
    218c:	fc521ee3          	bne	s2,s3,2168 <test_12+0x8>

00002190 <test_13>:
    2190:	00d00e13          	li	t2,13
    2194:	00000213          	li	s2,0
    2198:	fcd00093          	li	ra,-51
    219c:	00000117          	auipc	s0,0x0
    21a0:	27410113          	addi	s0,s0,628 # 2410 <begin_signature>
    21a4:	00000013          	nop
    21a8:	001100a3          	sb	ra,1(s0)
    21ac:	00110183          	lb	s1,1(s0)
    21b0:	fcd00e93          	li	t3,-51
    21b4:	25d19063          	bne	s1,t3,23f4 <fail>
    21b8:	00120213          	addi	s2,s2,1
    21bc:	00200293          	li	s3,2
    21c0:	fc521ce3          	bne	s2,s3,2198 <test_13+0x8>

000021c4 <test_14>:
    21c4:	00e00e13          	li	t2,14
    21c8:	00000213          	li	s2,0
    21cc:	fcc00093          	li	ra,-52
    21d0:	00000117          	auipc	s0,0x0
    21d4:	24010113          	addi	s0,s0,576 # 2410 <begin_signature>
    21d8:	00000013          	nop
    21dc:	00000013          	nop
    21e0:	00110123          	sb	ra,2(s0)
    21e4:	00210183          	lb	s1,2(s0)
    21e8:	fcc00e93          	li	t3,-52
    21ec:	21d19463          	bne	s1,t3,23f4 <fail>
    21f0:	00120213          	addi	s2,s2,1
    21f4:	00200293          	li	s3,2
    21f8:	fc521ae3          	bne	s2,s3,21cc <test_14+0x8>

000021fc <test_15>:
    21fc:	00f00e13          	li	t2,15
    2200:	00000213          	li	s2,0
    2204:	fbc00093          	li	ra,-68
    2208:	00000013          	nop
    220c:	00000117          	auipc	s0,0x0
    2210:	20410113          	addi	s0,s0,516 # 2410 <begin_signature>
    2214:	001101a3          	sb	ra,3(s0)
    2218:	00310183          	lb	s1,3(s0)
    221c:	fbc00e93          	li	t3,-68
    2220:	1dd19a63          	bne	s1,t3,23f4 <fail>
    2224:	00120213          	addi	s2,s2,1
    2228:	00200293          	li	s3,2
    222c:	fc521ce3          	bne	s2,s3,2204 <test_15+0x8>

00002230 <test_16>:
    2230:	01000e13          	li	t2,16
    2234:	00000213          	li	s2,0
    2238:	fbb00093          	li	ra,-69
    223c:	00000013          	nop
    2240:	00000117          	auipc	s0,0x0
    2244:	1d010113          	addi	s0,s0,464 # 2410 <begin_signature>
    2248:	00000013          	nop
    224c:	00110223          	sb	ra,4(s0)
    2250:	00410183          	lb	s1,4(s0)
    2254:	fbb00e93          	li	t3,-69
    2258:	19d19e63          	bne	s1,t3,23f4 <fail>
    225c:	00120213          	addi	s2,s2,1
    2260:	00200293          	li	s3,2
    2264:	fc521ae3          	bne	s2,s3,2238 <test_16+0x8>

00002268 <test_17>:
    2268:	01100e13          	li	t2,17
    226c:	00000213          	li	s2,0
    2270:	fab00093          	li	ra,-85
    2274:	00000013          	nop
    2278:	00000013          	nop
    227c:	00000117          	auipc	s0,0x0
    2280:	19410113          	addi	s0,s0,404 # 2410 <begin_signature>
    2284:	001102a3          	sb	ra,5(s0)
    2288:	00510183          	lb	s1,5(s0)
    228c:	fab00e93          	li	t3,-85
    2290:	17d19263          	bne	s1,t3,23f4 <fail>
    2294:	00120213          	addi	s2,s2,1
    2298:	00200293          	li	s3,2
    229c:	fc521ae3          	bne	s2,s3,2270 <test_17+0x8>

000022a0 <test_18>:
    22a0:	01200e13          	li	t2,18
    22a4:	00000213          	li	s2,0
    22a8:	00000117          	auipc	s0,0x0
    22ac:	16810113          	addi	s0,s0,360 # 2410 <begin_signature>
    22b0:	03300093          	li	ra,51
    22b4:	00110023          	sb	ra,0(s0)
    22b8:	00010183          	lb	s1,0(s0)
    22bc:	03300e93          	li	t3,51
    22c0:	13d19a63          	bne	s1,t3,23f4 <fail>
    22c4:	00120213          	addi	s2,s2,1
    22c8:	00200293          	li	s3,2
    22cc:	fc521ee3          	bne	s2,s3,22a8 <test_18+0x8>

000022d0 <test_19>:
    22d0:	01300e13          	li	t2,19
    22d4:	00000213          	li	s2,0
    22d8:	00000117          	auipc	s0,0x0
    22dc:	13810113          	addi	s0,s0,312 # 2410 <begin_signature>
    22e0:	02300093          	li	ra,35
    22e4:	00000013          	nop
    22e8:	001100a3          	sb	ra,1(s0)
    22ec:	00110183          	lb	s1,1(s0)
    22f0:	02300e93          	li	t3,35
    22f4:	11d19063          	bne	s1,t3,23f4 <fail>
    22f8:	00120213          	addi	s2,s2,1
    22fc:	00200293          	li	s3,2
    2300:	fc521ce3          	bne	s2,s3,22d8 <test_19+0x8>

00002304 <test_20>:
    2304:	01400e13          	li	t2,20
    2308:	00000213          	li	s2,0
    230c:	00000117          	auipc	s0,0x0
    2310:	10410113          	addi	s0,s0,260 # 2410 <begin_signature>
    2314:	02200093          	li	ra,34
    2318:	00000013          	nop
    231c:	00000013          	nop
    2320:	00110123          	sb	ra,2(s0)
    2324:	00210183          	lb	s1,2(s0)
    2328:	02200e93          	li	t3,34
    232c:	0dd19463          	bne	s1,t3,23f4 <fail>
    2330:	00120213          	addi	s2,s2,1
    2334:	00200293          	li	s3,2
    2338:	fc521ae3          	bne	s2,s3,230c <test_20+0x8>

0000233c <test_21>:
    233c:	01500e13          	li	t2,21
    2340:	00000213          	li	s2,0
    2344:	00000117          	auipc	s0,0x0
    2348:	0cc10113          	addi	s0,s0,204 # 2410 <begin_signature>
    234c:	00000013          	nop
    2350:	01200093          	li	ra,18
    2354:	001101a3          	sb	ra,3(s0)
    2358:	00310183          	lb	s1,3(s0)
    235c:	01200e93          	li	t3,18
    2360:	09d19a63          	bne	s1,t3,23f4 <fail>
    2364:	00120213          	addi	s2,s2,1
    2368:	00200293          	li	s3,2
    236c:	fc521ce3          	bne	s2,s3,2344 <test_21+0x8>

00002370 <test_22>:
    2370:	01600e13          	li	t2,22
    2374:	00000213          	li	s2,0
    2378:	00000117          	auipc	s0,0x0
    237c:	09810113          	addi	s0,s0,152 # 2410 <begin_signature>
    2380:	00000013          	nop
    2384:	01100093          	li	ra,17
    2388:	00000013          	nop
    238c:	00110223          	sb	ra,4(s0)
    2390:	00410183          	lb	s1,4(s0)
    2394:	01100e93          	li	t3,17
    2398:	05d19e63          	bne	s1,t3,23f4 <fail>
    239c:	00120213          	addi	s2,s2,1
    23a0:	00200293          	li	s3,2
    23a4:	fc521ae3          	bne	s2,s3,2378 <test_22+0x8>

000023a8 <test_23>:
    23a8:	01700e13          	li	t2,23
    23ac:	00000213          	li	s2,0
    23b0:	00000117          	auipc	s0,0x0
    23b4:	06010113          	addi	s0,s0,96 # 2410 <begin_signature>
    23b8:	00000013          	nop
    23bc:	00000013          	nop
    23c0:	00100093          	li	ra,1
    23c4:	001102a3          	sb	ra,5(s0)
    23c8:	00510183          	lb	s1,5(s0)
    23cc:	00100e93          	li	t3,1
    23d0:	03d19263          	bne	s1,t3,23f4 <fail>
    23d4:	00120213          	addi	s2,s2,1
    23d8:	00200293          	li	s3,2
    23dc:	fc521ae3          	bne	s2,s3,23b0 <test_23+0x8>
    23e0:	0ef00913          	li	a0,239
    23e4:	00000997          	auipc	a1,0x0
    23e8:	02c98993          	addi	a1,a1,44 # 2410 <begin_signature>
    23ec:	012981a3          	sb	a0,3(a1)
    23f0:	01c01c63          	bne	zero,t2,2408 <pass>

000023f4 <fail>:
    23f4:	000e0863          	beqz	t2,2404 <fail+0x10>
    23f8:	001e1e13          	slli	t2,t2,0x1
    23fc:	001e6e13          	ori	t2,t2,1
    2400:	51ee1073          	csrw	tohost,t2
    2404:	00000063          	b	2404 <fail+0x10>

00002408 <pass>:
    2408:	51e0d073          	csrwi	tohost,1
    240c:	00000063          	b	240c <pass+0x4>
