
rv32ui-p-and:     file format elf32-littleriscv


Disassembly of section .text:

00002000 <_start>:
    2000:	ff0100b7          	lui	ra,0xff010
    2004:	f0008093          	addi	ra,ra,-256 # ff00ff00 <begin_signature+0xff00da20>
    2008:	0f0f1137          	lui	s0,0xf0f1
    200c:	f0f10113          	addi	s0,s0,-241 # f0f0f0f <begin_signature+0xf0eea2f>
    2010:	0020f1b3          	and	s1,ra,s0
    2014:	0f001eb7          	lui	t3,0xf001
    2018:	f00e8e93          	addi	t3,t3,-256 # f000f00 <begin_signature+0xeffea20>
    201c:	00200e13          	li	t2,2
    2020:	49d19c63          	bne	s1,t3,24b8 <fail>

00002024 <test_3>:
    2024:	0ff010b7          	lui	ra,0xff01
    2028:	ff008093          	addi	ra,ra,-16 # ff00ff0 <begin_signature+0xfefeb10>
    202c:	f0f0f137          	lui	s0,0xf0f0f
    2030:	0f010113          	addi	s0,s0,240 # f0f0f0f0 <begin_signature+0xf0f0cc10>
    2034:	0020f1b3          	and	s1,ra,s0
    2038:	00f00eb7          	lui	t3,0xf00
    203c:	0f0e8e93          	addi	t3,t3,240 # f000f0 <begin_signature+0xefdc10>
    2040:	00300e13          	li	t2,3
    2044:	47d19a63          	bne	s1,t3,24b8 <fail>

00002048 <test_4>:
    2048:	00ff00b7          	lui	ra,0xff0
    204c:	0ff08093          	addi	ra,ra,255 # ff00ff <begin_signature+0xfedc1f>
    2050:	0f0f1137          	lui	s0,0xf0f1
    2054:	f0f10113          	addi	s0,s0,-241 # f0f0f0f <begin_signature+0xf0eea2f>
    2058:	0020f1b3          	and	s1,ra,s0
    205c:	000f0eb7          	lui	t3,0xf0
    2060:	00fe8e93          	addi	t3,t3,15 # f000f <begin_signature+0xedb2f>
    2064:	00400e13          	li	t2,4
    2068:	45d19863          	bne	s1,t3,24b8 <fail>

0000206c <test_5>:
    206c:	f00ff0b7          	lui	ra,0xf00ff
    2070:	00f08093          	addi	ra,ra,15 # f00ff00f <begin_signature+0xf00fcb2f>
    2074:	f0f0f137          	lui	s0,0xf0f0f
    2078:	0f010113          	addi	s0,s0,240 # f0f0f0f0 <begin_signature+0xf0f0cc10>
    207c:	0020f1b3          	and	s1,ra,s0
    2080:	f000feb7          	lui	t3,0xf000f
    2084:	00500e13          	li	t2,5
    2088:	43d19863          	bne	s1,t3,24b8 <fail>

0000208c <test_6>:
    208c:	ff0100b7          	lui	ra,0xff010
    2090:	f0008093          	addi	ra,ra,-256 # ff00ff00 <begin_signature+0xff00da20>
    2094:	0f0f1137          	lui	s0,0xf0f1
    2098:	f0f10113          	addi	s0,s0,-241 # f0f0f0f <begin_signature+0xf0eea2f>
    209c:	0020f0b3          	and	ra,ra,s0
    20a0:	0f001eb7          	lui	t3,0xf001
    20a4:	f00e8e93          	addi	t3,t3,-256 # f000f00 <begin_signature+0xeffea20>
    20a8:	00600e13          	li	t2,6
    20ac:	41d09663          	bne	ra,t3,24b8 <fail>

000020b0 <test_7>:
    20b0:	0ff010b7          	lui	ra,0xff01
    20b4:	ff008093          	addi	ra,ra,-16 # ff00ff0 <begin_signature+0xfefeb10>
    20b8:	f0f0f137          	lui	s0,0xf0f0f
    20bc:	0f010113          	addi	s0,s0,240 # f0f0f0f0 <begin_signature+0xf0f0cc10>
    20c0:	0020f133          	and	s0,ra,s0
    20c4:	00f00eb7          	lui	t3,0xf00
    20c8:	0f0e8e93          	addi	t3,t3,240 # f000f0 <begin_signature+0xefdc10>
    20cc:	00700e13          	li	t2,7
    20d0:	3fd11463          	bne	s0,t3,24b8 <fail>

000020d4 <test_8>:
    20d4:	ff0100b7          	lui	ra,0xff010
    20d8:	f0008093          	addi	ra,ra,-256 # ff00ff00 <begin_signature+0xff00da20>
    20dc:	0010f0b3          	and	ra,ra,ra
    20e0:	ff010eb7          	lui	t3,0xff010
    20e4:	f00e8e93          	addi	t3,t3,-256 # ff00ff00 <begin_signature+0xff00da20>
    20e8:	00800e13          	li	t2,8
    20ec:	3dd09663          	bne	ra,t3,24b8 <fail>

000020f0 <test_9>:
    20f0:	00000213          	li	s2,0
    20f4:	ff0100b7          	lui	ra,0xff010
    20f8:	f0008093          	addi	ra,ra,-256 # ff00ff00 <begin_signature+0xff00da20>
    20fc:	0f0f1137          	lui	s0,0xf0f1
    2100:	f0f10113          	addi	s0,s0,-241 # f0f0f0f <begin_signature+0xf0eea2f>
    2104:	0020f1b3          	and	s1,ra,s0
    2108:	00018313          	mv	s4,s1
    210c:	00120213          	addi	s2,s2,1
    2110:	00200293          	li	s3,2
    2114:	fe5210e3          	bne	s2,s3,20f4 <test_9+0x4>
    2118:	0f001eb7          	lui	t3,0xf001
    211c:	f00e8e93          	addi	t3,t3,-256 # f000f00 <begin_signature+0xeffea20>
    2120:	00900e13          	li	t2,9
    2124:	39d31a63          	bne	s4,t3,24b8 <fail>

00002128 <test_10>:
    2128:	00000213          	li	s2,0
    212c:	0ff010b7          	lui	ra,0xff01
    2130:	ff008093          	addi	ra,ra,-16 # ff00ff0 <begin_signature+0xfefeb10>
    2134:	f0f0f137          	lui	s0,0xf0f0f
    2138:	0f010113          	addi	s0,s0,240 # f0f0f0f0 <begin_signature+0xf0f0cc10>
    213c:	0020f1b3          	and	s1,ra,s0
    2140:	00000013          	nop
    2144:	00018313          	mv	s4,s1
    2148:	00120213          	addi	s2,s2,1
    214c:	00200293          	li	s3,2
    2150:	fc521ee3          	bne	s2,s3,212c <test_10+0x4>
    2154:	00f00eb7          	lui	t3,0xf00
    2158:	0f0e8e93          	addi	t3,t3,240 # f000f0 <begin_signature+0xefdc10>
    215c:	00a00e13          	li	t2,10
    2160:	35d31c63          	bne	s4,t3,24b8 <fail>

00002164 <test_11>:
    2164:	00000213          	li	s2,0
    2168:	00ff00b7          	lui	ra,0xff0
    216c:	0ff08093          	addi	ra,ra,255 # ff00ff <begin_signature+0xfedc1f>
    2170:	0f0f1137          	lui	s0,0xf0f1
    2174:	f0f10113          	addi	s0,s0,-241 # f0f0f0f <begin_signature+0xf0eea2f>
    2178:	0020f1b3          	and	s1,ra,s0
    217c:	00000013          	nop
    2180:	00000013          	nop
    2184:	00018313          	mv	s4,s1
    2188:	00120213          	addi	s2,s2,1
    218c:	00200293          	li	s3,2
    2190:	fc521ce3          	bne	s2,s3,2168 <test_11+0x4>
    2194:	000f0eb7          	lui	t3,0xf0
    2198:	00fe8e93          	addi	t3,t3,15 # f000f <begin_signature+0xedb2f>
    219c:	00b00e13          	li	t2,11
    21a0:	31d31c63          	bne	s4,t3,24b8 <fail>

000021a4 <test_12>:
    21a4:	00000213          	li	s2,0
    21a8:	ff0100b7          	lui	ra,0xff010
    21ac:	f0008093          	addi	ra,ra,-256 # ff00ff00 <begin_signature+0xff00da20>
    21b0:	0f0f1137          	lui	s0,0xf0f1
    21b4:	f0f10113          	addi	s0,s0,-241 # f0f0f0f <begin_signature+0xf0eea2f>
    21b8:	0020f1b3          	and	s1,ra,s0
    21bc:	00120213          	addi	s2,s2,1
    21c0:	00200293          	li	s3,2
    21c4:	fe5212e3          	bne	s2,s3,21a8 <test_12+0x4>
    21c8:	0f001eb7          	lui	t3,0xf001
    21cc:	f00e8e93          	addi	t3,t3,-256 # f000f00 <begin_signature+0xeffea20>
    21d0:	00c00e13          	li	t2,12
    21d4:	2fd19263          	bne	s1,t3,24b8 <fail>

000021d8 <test_13>:
    21d8:	00000213          	li	s2,0
    21dc:	0ff010b7          	lui	ra,0xff01
    21e0:	ff008093          	addi	ra,ra,-16 # ff00ff0 <begin_signature+0xfefeb10>
    21e4:	f0f0f137          	lui	s0,0xf0f0f
    21e8:	0f010113          	addi	s0,s0,240 # f0f0f0f0 <begin_signature+0xf0f0cc10>
    21ec:	00000013          	nop
    21f0:	0020f1b3          	and	s1,ra,s0
    21f4:	00120213          	addi	s2,s2,1
    21f8:	00200293          	li	s3,2
    21fc:	fe5210e3          	bne	s2,s3,21dc <test_13+0x4>
    2200:	00f00eb7          	lui	t3,0xf00
    2204:	0f0e8e93          	addi	t3,t3,240 # f000f0 <begin_signature+0xefdc10>
    2208:	00d00e13          	li	t2,13
    220c:	2bd19663          	bne	s1,t3,24b8 <fail>

00002210 <test_14>:
    2210:	00000213          	li	s2,0
    2214:	00ff00b7          	lui	ra,0xff0
    2218:	0ff08093          	addi	ra,ra,255 # ff00ff <begin_signature+0xfedc1f>
    221c:	0f0f1137          	lui	s0,0xf0f1
    2220:	f0f10113          	addi	s0,s0,-241 # f0f0f0f <begin_signature+0xf0eea2f>
    2224:	00000013          	nop
    2228:	00000013          	nop
    222c:	0020f1b3          	and	s1,ra,s0
    2230:	00120213          	addi	s2,s2,1
    2234:	00200293          	li	s3,2
    2238:	fc521ee3          	bne	s2,s3,2214 <test_14+0x4>
    223c:	000f0eb7          	lui	t3,0xf0
    2240:	00fe8e93          	addi	t3,t3,15 # f000f <begin_signature+0xedb2f>
    2244:	00e00e13          	li	t2,14
    2248:	27d19863          	bne	s1,t3,24b8 <fail>

0000224c <test_15>:
    224c:	00000213          	li	s2,0
    2250:	ff0100b7          	lui	ra,0xff010
    2254:	f0008093          	addi	ra,ra,-256 # ff00ff00 <begin_signature+0xff00da20>
    2258:	00000013          	nop
    225c:	0f0f1137          	lui	s0,0xf0f1
    2260:	f0f10113          	addi	s0,s0,-241 # f0f0f0f <begin_signature+0xf0eea2f>
    2264:	0020f1b3          	and	s1,ra,s0
    2268:	00120213          	addi	s2,s2,1
    226c:	00200293          	li	s3,2
    2270:	fe5210e3          	bne	s2,s3,2250 <test_15+0x4>
    2274:	0f001eb7          	lui	t3,0xf001
    2278:	f00e8e93          	addi	t3,t3,-256 # f000f00 <begin_signature+0xeffea20>
    227c:	00f00e13          	li	t2,15
    2280:	23d19c63          	bne	s1,t3,24b8 <fail>

00002284 <test_16>:
    2284:	00000213          	li	s2,0
    2288:	0ff010b7          	lui	ra,0xff01
    228c:	ff008093          	addi	ra,ra,-16 # ff00ff0 <begin_signature+0xfefeb10>
    2290:	00000013          	nop
    2294:	f0f0f137          	lui	s0,0xf0f0f
    2298:	0f010113          	addi	s0,s0,240 # f0f0f0f0 <begin_signature+0xf0f0cc10>
    229c:	00000013          	nop
    22a0:	0020f1b3          	and	s1,ra,s0
    22a4:	00120213          	addi	s2,s2,1
    22a8:	00200293          	li	s3,2
    22ac:	fc521ee3          	bne	s2,s3,2288 <test_16+0x4>
    22b0:	00f00eb7          	lui	t3,0xf00
    22b4:	0f0e8e93          	addi	t3,t3,240 # f000f0 <begin_signature+0xefdc10>
    22b8:	01000e13          	li	t2,16
    22bc:	1fd19e63          	bne	s1,t3,24b8 <fail>

000022c0 <test_17>:
    22c0:	00000213          	li	s2,0
    22c4:	00ff00b7          	lui	ra,0xff0
    22c8:	0ff08093          	addi	ra,ra,255 # ff00ff <begin_signature+0xfedc1f>
    22cc:	00000013          	nop
    22d0:	00000013          	nop
    22d4:	0f0f1137          	lui	s0,0xf0f1
    22d8:	f0f10113          	addi	s0,s0,-241 # f0f0f0f <begin_signature+0xf0eea2f>
    22dc:	0020f1b3          	and	s1,ra,s0
    22e0:	00120213          	addi	s2,s2,1
    22e4:	00200293          	li	s3,2
    22e8:	fc521ee3          	bne	s2,s3,22c4 <test_17+0x4>
    22ec:	000f0eb7          	lui	t3,0xf0
    22f0:	00fe8e93          	addi	t3,t3,15 # f000f <begin_signature+0xedb2f>
    22f4:	01100e13          	li	t2,17
    22f8:	1dd19063          	bne	s1,t3,24b8 <fail>

000022fc <test_18>:
    22fc:	00000213          	li	s2,0
    2300:	0f0f1137          	lui	s0,0xf0f1
    2304:	f0f10113          	addi	s0,s0,-241 # f0f0f0f <begin_signature+0xf0eea2f>
    2308:	ff0100b7          	lui	ra,0xff010
    230c:	f0008093          	addi	ra,ra,-256 # ff00ff00 <begin_signature+0xff00da20>
    2310:	0020f1b3          	and	s1,ra,s0
    2314:	00120213          	addi	s2,s2,1
    2318:	00200293          	li	s3,2
    231c:	fe5212e3          	bne	s2,s3,2300 <test_18+0x4>
    2320:	0f001eb7          	lui	t3,0xf001
    2324:	f00e8e93          	addi	t3,t3,-256 # f000f00 <begin_signature+0xeffea20>
    2328:	01200e13          	li	t2,18
    232c:	19d19663          	bne	s1,t3,24b8 <fail>

00002330 <test_19>:
    2330:	00000213          	li	s2,0
    2334:	f0f0f137          	lui	s0,0xf0f0f
    2338:	0f010113          	addi	s0,s0,240 # f0f0f0f0 <begin_signature+0xf0f0cc10>
    233c:	0ff010b7          	lui	ra,0xff01
    2340:	ff008093          	addi	ra,ra,-16 # ff00ff0 <begin_signature+0xfefeb10>
    2344:	00000013          	nop
    2348:	0020f1b3          	and	s1,ra,s0
    234c:	00120213          	addi	s2,s2,1
    2350:	00200293          	li	s3,2
    2354:	fe5210e3          	bne	s2,s3,2334 <test_19+0x4>
    2358:	00f00eb7          	lui	t3,0xf00
    235c:	0f0e8e93          	addi	t3,t3,240 # f000f0 <begin_signature+0xefdc10>
    2360:	01300e13          	li	t2,19
    2364:	15d19a63          	bne	s1,t3,24b8 <fail>

00002368 <test_20>:
    2368:	00000213          	li	s2,0
    236c:	0f0f1137          	lui	s0,0xf0f1
    2370:	f0f10113          	addi	s0,s0,-241 # f0f0f0f <begin_signature+0xf0eea2f>
    2374:	00ff00b7          	lui	ra,0xff0
    2378:	0ff08093          	addi	ra,ra,255 # ff00ff <begin_signature+0xfedc1f>
    237c:	00000013          	nop
    2380:	00000013          	nop
    2384:	0020f1b3          	and	s1,ra,s0
    2388:	00120213          	addi	s2,s2,1
    238c:	00200293          	li	s3,2
    2390:	fc521ee3          	bne	s2,s3,236c <test_20+0x4>
    2394:	000f0eb7          	lui	t3,0xf0
    2398:	00fe8e93          	addi	t3,t3,15 # f000f <begin_signature+0xedb2f>
    239c:	01400e13          	li	t2,20
    23a0:	11d19c63          	bne	s1,t3,24b8 <fail>

000023a4 <test_21>:
    23a4:	00000213          	li	s2,0
    23a8:	0f0f1137          	lui	s0,0xf0f1
    23ac:	f0f10113          	addi	s0,s0,-241 # f0f0f0f <begin_signature+0xf0eea2f>
    23b0:	00000013          	nop
    23b4:	ff0100b7          	lui	ra,0xff010
    23b8:	f0008093          	addi	ra,ra,-256 # ff00ff00 <begin_signature+0xff00da20>
    23bc:	0020f1b3          	and	s1,ra,s0
    23c0:	00120213          	addi	s2,s2,1
    23c4:	00200293          	li	s3,2
    23c8:	fe5210e3          	bne	s2,s3,23a8 <test_21+0x4>
    23cc:	0f001eb7          	lui	t3,0xf001
    23d0:	f00e8e93          	addi	t3,t3,-256 # f000f00 <begin_signature+0xeffea20>
    23d4:	01500e13          	li	t2,21
    23d8:	0fd19063          	bne	s1,t3,24b8 <fail>

000023dc <test_22>:
    23dc:	00000213          	li	s2,0
    23e0:	f0f0f137          	lui	s0,0xf0f0f
    23e4:	0f010113          	addi	s0,s0,240 # f0f0f0f0 <begin_signature+0xf0f0cc10>
    23e8:	00000013          	nop
    23ec:	0ff010b7          	lui	ra,0xff01
    23f0:	ff008093          	addi	ra,ra,-16 # ff00ff0 <begin_signature+0xfefeb10>
    23f4:	00000013          	nop
    23f8:	0020f1b3          	and	s1,ra,s0
    23fc:	00120213          	addi	s2,s2,1
    2400:	00200293          	li	s3,2
    2404:	fc521ee3          	bne	s2,s3,23e0 <test_22+0x4>
    2408:	00f00eb7          	lui	t3,0xf00
    240c:	0f0e8e93          	addi	t3,t3,240 # f000f0 <begin_signature+0xefdc10>
    2410:	01600e13          	li	t2,22
    2414:	0bd19263          	bne	s1,t3,24b8 <fail>

00002418 <test_23>:
    2418:	00000213          	li	s2,0
    241c:	0f0f1137          	lui	s0,0xf0f1
    2420:	f0f10113          	addi	s0,s0,-241 # f0f0f0f <begin_signature+0xf0eea2f>
    2424:	00000013          	nop
    2428:	00000013          	nop
    242c:	00ff00b7          	lui	ra,0xff0
    2430:	0ff08093          	addi	ra,ra,255 # ff00ff <begin_signature+0xfedc1f>
    2434:	0020f1b3          	and	s1,ra,s0
    2438:	00120213          	addi	s2,s2,1
    243c:	00200293          	li	s3,2
    2440:	fc521ee3          	bne	s2,s3,241c <test_23+0x4>
    2444:	000f0eb7          	lui	t3,0xf0
    2448:	00fe8e93          	addi	t3,t3,15 # f000f <begin_signature+0xedb2f>
    244c:	01700e13          	li	t2,23
    2450:	07d19463          	bne	s1,t3,24b8 <fail>

00002454 <test_24>:
    2454:	ff0100b7          	lui	ra,0xff010
    2458:	f0008093          	addi	ra,ra,-256 # ff00ff00 <begin_signature+0xff00da20>
    245c:	00107133          	and	s0,zero,ra
    2460:	00000e93          	li	t3,0
    2464:	01800e13          	li	t2,24
    2468:	05d11863          	bne	s0,t3,24b8 <fail>

0000246c <test_25>:
    246c:	00ff00b7          	lui	ra,0xff0
    2470:	0ff08093          	addi	ra,ra,255 # ff00ff <begin_signature+0xfedc1f>
    2474:	0000f133          	and	s0,ra,zero
    2478:	00000e93          	li	t3,0
    247c:	01900e13          	li	t2,25
    2480:	03d11c63          	bne	s0,t3,24b8 <fail>

00002484 <test_26>:
    2484:	000070b3          	and	ra,zero,zero
    2488:	00000e93          	li	t3,0
    248c:	01a00e13          	li	t2,26
    2490:	03d09463          	bne	ra,t3,24b8 <fail>

00002494 <test_27>:
    2494:	111110b7          	lui	ra,0x11111
    2498:	11108093          	addi	ra,ra,273 # 11111111 <begin_signature+0x1110ec31>
    249c:	22222137          	lui	s0,0x22222
    24a0:	22210113          	addi	s0,s0,546 # 22222222 <begin_signature+0x2221fd42>
    24a4:	0020f033          	and	zero,ra,s0
    24a8:	00000e93          	li	t3,0
    24ac:	01b00e13          	li	t2,27
    24b0:	01d01463          	bne	zero,t3,24b8 <fail>
    24b4:	01c01c63          	bne	zero,t2,24cc <pass>

000024b8 <fail>:
    24b8:	000e0863          	beqz	t2,24c8 <fail+0x10>
    24bc:	001e1e13          	slli	t2,t2,0x1
    24c0:	001e6e13          	ori	t2,t2,1
    24c4:	51ee1073          	csrw	tohost,t2
    24c8:	00000063          	b	24c8 <fail+0x10>

000024cc <pass>:
    24cc:	51e0d073          	csrwi	tohost,1
    24d0:	00000063          	b	24d0 <pass+0x4>
    24d4:	00000013          	nop
    24d8:	00000013          	nop
    24dc:	00000013          	nop
