
rv32ui-p-srl:     file format elf32-littleriscv


Disassembly of section .text:

00002000 <_start>:
    2000:	ffff80b7          	lui	ra,0xffff8
    2004:	00000113          	li	s0,0
    2008:	0020d1b3          	srl	s1,ra,s0
    200c:	ffff8eb7          	lui	t3,0xffff8
    2010:	00200e13          	li	t2,2
    2014:	5bd19463          	bne	s1,t3,25bc <fail>

00002018 <test_3>:
    2018:	ffff80b7          	lui	ra,0xffff8
    201c:	00100113          	li	s0,1
    2020:	0020d1b3          	srl	s1,ra,s0
    2024:	7fffceb7          	lui	t3,0x7fffc
    2028:	00300e13          	li	t2,3
    202c:	59d19863          	bne	s1,t3,25bc <fail>

00002030 <test_4>:
    2030:	ffff80b7          	lui	ra,0xffff8
    2034:	00700113          	li	s0,7
    2038:	0020d1b3          	srl	s1,ra,s0
    203c:	02000eb7          	lui	t3,0x2000
    2040:	f00e8e93          	addi	t3,t3,-256 # 1ffff00 <begin_signature+0x1ffd920>
    2044:	00400e13          	li	t2,4
    2048:	57d19a63          	bne	s1,t3,25bc <fail>

0000204c <test_5>:
    204c:	ffff80b7          	lui	ra,0xffff8
    2050:	00e00113          	li	s0,14
    2054:	0020d1b3          	srl	s1,ra,s0
    2058:	00040eb7          	lui	t3,0x40
    205c:	ffee8e93          	addi	t3,t3,-2 # 3fffe <begin_signature+0x3da1e>
    2060:	00500e13          	li	t2,5
    2064:	55d19c63          	bne	s1,t3,25bc <fail>

00002068 <test_6>:
    2068:	ffff80b7          	lui	ra,0xffff8
    206c:	00108093          	addi	ra,ra,1 # ffff8001 <begin_signature+0xffff5a21>
    2070:	00f00113          	li	s0,15
    2074:	0020d1b3          	srl	s1,ra,s0
    2078:	00020eb7          	lui	t3,0x20
    207c:	fffe8e93          	addi	t3,t3,-1 # 1ffff <begin_signature+0x1da1f>
    2080:	00600e13          	li	t2,6
    2084:	53d19c63          	bne	s1,t3,25bc <fail>

00002088 <test_7>:
    2088:	fff00093          	li	ra,-1
    208c:	00000113          	li	s0,0
    2090:	0020d1b3          	srl	s1,ra,s0
    2094:	fff00e93          	li	t3,-1
    2098:	00700e13          	li	t2,7
    209c:	53d19063          	bne	s1,t3,25bc <fail>

000020a0 <test_8>:
    20a0:	fff00093          	li	ra,-1
    20a4:	00100113          	li	s0,1
    20a8:	0020d1b3          	srl	s1,ra,s0
    20ac:	80000eb7          	lui	t3,0x80000
    20b0:	fffe8e93          	addi	t3,t3,-1 # 7fffffff <begin_signature+0x7fffda1f>
    20b4:	00800e13          	li	t2,8
    20b8:	51d19263          	bne	s1,t3,25bc <fail>

000020bc <test_9>:
    20bc:	fff00093          	li	ra,-1
    20c0:	00700113          	li	s0,7
    20c4:	0020d1b3          	srl	s1,ra,s0
    20c8:	02000eb7          	lui	t3,0x2000
    20cc:	fffe8e93          	addi	t3,t3,-1 # 1ffffff <begin_signature+0x1ffda1f>
    20d0:	00900e13          	li	t2,9
    20d4:	4fd19463          	bne	s1,t3,25bc <fail>

000020d8 <test_10>:
    20d8:	fff00093          	li	ra,-1
    20dc:	00e00113          	li	s0,14
    20e0:	0020d1b3          	srl	s1,ra,s0
    20e4:	00040eb7          	lui	t3,0x40
    20e8:	fffe8e93          	addi	t3,t3,-1 # 3ffff <begin_signature+0x3da1f>
    20ec:	00a00e13          	li	t2,10
    20f0:	4dd19663          	bne	s1,t3,25bc <fail>

000020f4 <test_11>:
    20f4:	fff00093          	li	ra,-1
    20f8:	01f00113          	li	s0,31
    20fc:	0020d1b3          	srl	s1,ra,s0
    2100:	00100e93          	li	t3,1
    2104:	00b00e13          	li	t2,11
    2108:	4bd19a63          	bne	s1,t3,25bc <fail>

0000210c <test_12>:
    210c:	212120b7          	lui	ra,0x21212
    2110:	12108093          	addi	ra,ra,289 # 21212121 <begin_signature+0x2120fb41>
    2114:	00000113          	li	s0,0
    2118:	0020d1b3          	srl	s1,ra,s0
    211c:	21212eb7          	lui	t3,0x21212
    2120:	121e8e93          	addi	t3,t3,289 # 21212121 <begin_signature+0x2120fb41>
    2124:	00c00e13          	li	t2,12
    2128:	49d19a63          	bne	s1,t3,25bc <fail>

0000212c <test_13>:
    212c:	212120b7          	lui	ra,0x21212
    2130:	12108093          	addi	ra,ra,289 # 21212121 <begin_signature+0x2120fb41>
    2134:	00100113          	li	s0,1
    2138:	0020d1b3          	srl	s1,ra,s0
    213c:	10909eb7          	lui	t3,0x10909
    2140:	090e8e93          	addi	t3,t3,144 # 10909090 <begin_signature+0x10906ab0>
    2144:	00d00e13          	li	t2,13
    2148:	47d19a63          	bne	s1,t3,25bc <fail>

0000214c <test_14>:
    214c:	212120b7          	lui	ra,0x21212
    2150:	12108093          	addi	ra,ra,289 # 21212121 <begin_signature+0x2120fb41>
    2154:	00700113          	li	s0,7
    2158:	0020d1b3          	srl	s1,ra,s0
    215c:	00424eb7          	lui	t3,0x424
    2160:	242e8e93          	addi	t3,t3,578 # 424242 <begin_signature+0x421c62>
    2164:	00e00e13          	li	t2,14
    2168:	45d19a63          	bne	s1,t3,25bc <fail>

0000216c <test_15>:
    216c:	212120b7          	lui	ra,0x21212
    2170:	12108093          	addi	ra,ra,289 # 21212121 <begin_signature+0x2120fb41>
    2174:	00e00113          	li	s0,14
    2178:	0020d1b3          	srl	s1,ra,s0
    217c:	00008eb7          	lui	t3,0x8
    2180:	484e8e93          	addi	t3,t3,1156 # 8484 <begin_signature+0x5ea4>
    2184:	00f00e13          	li	t2,15
    2188:	43d19a63          	bne	s1,t3,25bc <fail>

0000218c <test_16>:
    218c:	212120b7          	lui	ra,0x21212
    2190:	12108093          	addi	ra,ra,289 # 21212121 <begin_signature+0x2120fb41>
    2194:	01f00113          	li	s0,31
    2198:	0020d1b3          	srl	s1,ra,s0
    219c:	00000e93          	li	t3,0
    21a0:	01000e13          	li	t2,16
    21a4:	41d19c63          	bne	s1,t3,25bc <fail>

000021a8 <test_17>:
    21a8:	212120b7          	lui	ra,0x21212
    21ac:	12108093          	addi	ra,ra,289 # 21212121 <begin_signature+0x2120fb41>
    21b0:	fe000113          	li	s0,-32
    21b4:	0020d1b3          	srl	s1,ra,s0
    21b8:	21212eb7          	lui	t3,0x21212
    21bc:	121e8e93          	addi	t3,t3,289 # 21212121 <begin_signature+0x2120fb41>
    21c0:	01100e13          	li	t2,17
    21c4:	3fd19c63          	bne	s1,t3,25bc <fail>

000021c8 <test_18>:
    21c8:	212120b7          	lui	ra,0x21212
    21cc:	12108093          	addi	ra,ra,289 # 21212121 <begin_signature+0x2120fb41>
    21d0:	fe100113          	li	s0,-31
    21d4:	0020d1b3          	srl	s1,ra,s0
    21d8:	10909eb7          	lui	t3,0x10909
    21dc:	090e8e93          	addi	t3,t3,144 # 10909090 <begin_signature+0x10906ab0>
    21e0:	01200e13          	li	t2,18
    21e4:	3dd19c63          	bne	s1,t3,25bc <fail>

000021e8 <test_19>:
    21e8:	212120b7          	lui	ra,0x21212
    21ec:	12108093          	addi	ra,ra,289 # 21212121 <begin_signature+0x2120fb41>
    21f0:	fe700113          	li	s0,-25
    21f4:	0020d1b3          	srl	s1,ra,s0
    21f8:	00424eb7          	lui	t3,0x424
    21fc:	242e8e93          	addi	t3,t3,578 # 424242 <begin_signature+0x421c62>
    2200:	01300e13          	li	t2,19
    2204:	3bd19c63          	bne	s1,t3,25bc <fail>

00002208 <test_20>:
    2208:	212120b7          	lui	ra,0x21212
    220c:	12108093          	addi	ra,ra,289 # 21212121 <begin_signature+0x2120fb41>
    2210:	fee00113          	li	s0,-18
    2214:	0020d1b3          	srl	s1,ra,s0
    2218:	00008eb7          	lui	t3,0x8
    221c:	484e8e93          	addi	t3,t3,1156 # 8484 <begin_signature+0x5ea4>
    2220:	01400e13          	li	t2,20
    2224:	39d19c63          	bne	s1,t3,25bc <fail>

00002228 <test_21>:
    2228:	212120b7          	lui	ra,0x21212
    222c:	12108093          	addi	ra,ra,289 # 21212121 <begin_signature+0x2120fb41>
    2230:	fff00113          	li	s0,-1
    2234:	0020d1b3          	srl	s1,ra,s0
    2238:	00000e93          	li	t3,0
    223c:	01500e13          	li	t2,21
    2240:	37d19e63          	bne	s1,t3,25bc <fail>

00002244 <test_22>:
    2244:	ffff80b7          	lui	ra,0xffff8
    2248:	00100113          	li	s0,1
    224c:	0020d0b3          	srl	ra,ra,s0
    2250:	7fffceb7          	lui	t3,0x7fffc
    2254:	01600e13          	li	t2,22
    2258:	37d09263          	bne	ra,t3,25bc <fail>

0000225c <test_23>:
    225c:	ffff80b7          	lui	ra,0xffff8
    2260:	00e00113          	li	s0,14
    2264:	0020d133          	srl	s0,ra,s0
    2268:	00040eb7          	lui	t3,0x40
    226c:	ffee8e93          	addi	t3,t3,-2 # 3fffe <begin_signature+0x3da1e>
    2270:	01700e13          	li	t2,23
    2274:	35d11463          	bne	s0,t3,25bc <fail>

00002278 <test_24>:
    2278:	00700093          	li	ra,7
    227c:	0010d0b3          	srl	ra,ra,ra
    2280:	00000e93          	li	t3,0
    2284:	01800e13          	li	t2,24
    2288:	33d09a63          	bne	ra,t3,25bc <fail>

0000228c <test_25>:
    228c:	00000213          	li	s2,0
    2290:	ffff80b7          	lui	ra,0xffff8
    2294:	00100113          	li	s0,1
    2298:	0020d1b3          	srl	s1,ra,s0
    229c:	00018313          	mv	s4,s1
    22a0:	00120213          	addi	s2,s2,1
    22a4:	00200293          	li	s3,2
    22a8:	fe5214e3          	bne	s2,s3,2290 <test_25+0x4>
    22ac:	7fffceb7          	lui	t3,0x7fffc
    22b0:	01900e13          	li	t2,25
    22b4:	31d31463          	bne	s4,t3,25bc <fail>

000022b8 <test_26>:
    22b8:	00000213          	li	s2,0
    22bc:	ffff80b7          	lui	ra,0xffff8
    22c0:	00e00113          	li	s0,14
    22c4:	0020d1b3          	srl	s1,ra,s0
    22c8:	00000013          	nop
    22cc:	00018313          	mv	s4,s1
    22d0:	00120213          	addi	s2,s2,1
    22d4:	00200293          	li	s3,2
    22d8:	fe5212e3          	bne	s2,s3,22bc <test_26+0x4>
    22dc:	00040eb7          	lui	t3,0x40
    22e0:	ffee8e93          	addi	t3,t3,-2 # 3fffe <begin_signature+0x3da1e>
    22e4:	01a00e13          	li	t2,26
    22e8:	2dd31a63          	bne	s4,t3,25bc <fail>

000022ec <test_27>:
    22ec:	00000213          	li	s2,0
    22f0:	ffff80b7          	lui	ra,0xffff8
    22f4:	00f00113          	li	s0,15
    22f8:	0020d1b3          	srl	s1,ra,s0
    22fc:	00000013          	nop
    2300:	00000013          	nop
    2304:	00018313          	mv	s4,s1
    2308:	00120213          	addi	s2,s2,1
    230c:	00200293          	li	s3,2
    2310:	fe5210e3          	bne	s2,s3,22f0 <test_27+0x4>
    2314:	00020eb7          	lui	t3,0x20
    2318:	fffe8e93          	addi	t3,t3,-1 # 1ffff <begin_signature+0x1da1f>
    231c:	01b00e13          	li	t2,27
    2320:	29d31e63          	bne	s4,t3,25bc <fail>

00002324 <test_28>:
    2324:	00000213          	li	s2,0
    2328:	ffff80b7          	lui	ra,0xffff8
    232c:	00100113          	li	s0,1
    2330:	0020d1b3          	srl	s1,ra,s0
    2334:	00120213          	addi	s2,s2,1
    2338:	00200293          	li	s3,2
    233c:	fe5216e3          	bne	s2,s3,2328 <test_28+0x4>
    2340:	7fffceb7          	lui	t3,0x7fffc
    2344:	01c00e13          	li	t2,28
    2348:	27d19a63          	bne	s1,t3,25bc <fail>

0000234c <test_29>:
    234c:	00000213          	li	s2,0
    2350:	ffff80b7          	lui	ra,0xffff8
    2354:	00700113          	li	s0,7
    2358:	00000013          	nop
    235c:	0020d1b3          	srl	s1,ra,s0
    2360:	00120213          	addi	s2,s2,1
    2364:	00200293          	li	s3,2
    2368:	fe5214e3          	bne	s2,s3,2350 <test_29+0x4>
    236c:	02000eb7          	lui	t3,0x2000
    2370:	f00e8e93          	addi	t3,t3,-256 # 1ffff00 <begin_signature+0x1ffd920>
    2374:	01d00e13          	li	t2,29
    2378:	25d19263          	bne	s1,t3,25bc <fail>

0000237c <test_30>:
    237c:	00000213          	li	s2,0
    2380:	ffff80b7          	lui	ra,0xffff8
    2384:	00f00113          	li	s0,15
    2388:	00000013          	nop
    238c:	00000013          	nop
    2390:	0020d1b3          	srl	s1,ra,s0
    2394:	00120213          	addi	s2,s2,1
    2398:	00200293          	li	s3,2
    239c:	fe5212e3          	bne	s2,s3,2380 <test_30+0x4>
    23a0:	00020eb7          	lui	t3,0x20
    23a4:	fffe8e93          	addi	t3,t3,-1 # 1ffff <begin_signature+0x1da1f>
    23a8:	01e00e13          	li	t2,30
    23ac:	21d19863          	bne	s1,t3,25bc <fail>

000023b0 <test_31>:
    23b0:	00000213          	li	s2,0
    23b4:	ffff80b7          	lui	ra,0xffff8
    23b8:	00000013          	nop
    23bc:	00100113          	li	s0,1
    23c0:	0020d1b3          	srl	s1,ra,s0
    23c4:	00120213          	addi	s2,s2,1
    23c8:	00200293          	li	s3,2
    23cc:	fe5214e3          	bne	s2,s3,23b4 <test_31+0x4>
    23d0:	7fffceb7          	lui	t3,0x7fffc
    23d4:	01f00e13          	li	t2,31
    23d8:	1fd19263          	bne	s1,t3,25bc <fail>

000023dc <test_32>:
    23dc:	00000213          	li	s2,0
    23e0:	ffff80b7          	lui	ra,0xffff8
    23e4:	00000013          	nop
    23e8:	00700113          	li	s0,7
    23ec:	00000013          	nop
    23f0:	0020d1b3          	srl	s1,ra,s0
    23f4:	00120213          	addi	s2,s2,1
    23f8:	00200293          	li	s3,2
    23fc:	fe5212e3          	bne	s2,s3,23e0 <test_32+0x4>
    2400:	02000eb7          	lui	t3,0x2000
    2404:	f00e8e93          	addi	t3,t3,-256 # 1ffff00 <begin_signature+0x1ffd920>
    2408:	02000e13          	li	t2,32
    240c:	1bd19863          	bne	s1,t3,25bc <fail>

00002410 <test_33>:
    2410:	00000213          	li	s2,0
    2414:	ffff80b7          	lui	ra,0xffff8
    2418:	00000013          	nop
    241c:	00000013          	nop
    2420:	00f00113          	li	s0,15
    2424:	0020d1b3          	srl	s1,ra,s0
    2428:	00120213          	addi	s2,s2,1
    242c:	00200293          	li	s3,2
    2430:	fe5212e3          	bne	s2,s3,2414 <test_33+0x4>
    2434:	00020eb7          	lui	t3,0x20
    2438:	fffe8e93          	addi	t3,t3,-1 # 1ffff <begin_signature+0x1da1f>
    243c:	02100e13          	li	t2,33
    2440:	17d19e63          	bne	s1,t3,25bc <fail>

00002444 <test_34>:
    2444:	00000213          	li	s2,0
    2448:	00100113          	li	s0,1
    244c:	ffff80b7          	lui	ra,0xffff8
    2450:	0020d1b3          	srl	s1,ra,s0
    2454:	00120213          	addi	s2,s2,1
    2458:	00200293          	li	s3,2
    245c:	fe5216e3          	bne	s2,s3,2448 <test_34+0x4>
    2460:	7fffceb7          	lui	t3,0x7fffc
    2464:	02200e13          	li	t2,34
    2468:	15d19a63          	bne	s1,t3,25bc <fail>

0000246c <test_35>:
    246c:	00000213          	li	s2,0
    2470:	00700113          	li	s0,7
    2474:	ffff80b7          	lui	ra,0xffff8
    2478:	00000013          	nop
    247c:	0020d1b3          	srl	s1,ra,s0
    2480:	00120213          	addi	s2,s2,1
    2484:	00200293          	li	s3,2
    2488:	fe5214e3          	bne	s2,s3,2470 <test_35+0x4>
    248c:	02000eb7          	lui	t3,0x2000
    2490:	f00e8e93          	addi	t3,t3,-256 # 1ffff00 <begin_signature+0x1ffd920>
    2494:	02300e13          	li	t2,35
    2498:	13d19263          	bne	s1,t3,25bc <fail>

0000249c <test_36>:
    249c:	00000213          	li	s2,0
    24a0:	00f00113          	li	s0,15
    24a4:	ffff80b7          	lui	ra,0xffff8
    24a8:	00000013          	nop
    24ac:	00000013          	nop
    24b0:	0020d1b3          	srl	s1,ra,s0
    24b4:	00120213          	addi	s2,s2,1
    24b8:	00200293          	li	s3,2
    24bc:	fe5212e3          	bne	s2,s3,24a0 <test_36+0x4>
    24c0:	00020eb7          	lui	t3,0x20
    24c4:	fffe8e93          	addi	t3,t3,-1 # 1ffff <begin_signature+0x1da1f>
    24c8:	02400e13          	li	t2,36
    24cc:	0fd19863          	bne	s1,t3,25bc <fail>

000024d0 <test_37>:
    24d0:	00000213          	li	s2,0
    24d4:	00100113          	li	s0,1
    24d8:	00000013          	nop
    24dc:	ffff80b7          	lui	ra,0xffff8
    24e0:	0020d1b3          	srl	s1,ra,s0
    24e4:	00120213          	addi	s2,s2,1
    24e8:	00200293          	li	s3,2
    24ec:	fe5214e3          	bne	s2,s3,24d4 <test_37+0x4>
    24f0:	7fffceb7          	lui	t3,0x7fffc
    24f4:	02500e13          	li	t2,37
    24f8:	0dd19263          	bne	s1,t3,25bc <fail>

000024fc <test_38>:
    24fc:	00000213          	li	s2,0
    2500:	00700113          	li	s0,7
    2504:	00000013          	nop
    2508:	ffff80b7          	lui	ra,0xffff8
    250c:	00000013          	nop
    2510:	0020d1b3          	srl	s1,ra,s0
    2514:	00120213          	addi	s2,s2,1
    2518:	00200293          	li	s3,2
    251c:	fe5212e3          	bne	s2,s3,2500 <test_38+0x4>
    2520:	02000eb7          	lui	t3,0x2000
    2524:	f00e8e93          	addi	t3,t3,-256 # 1ffff00 <begin_signature+0x1ffd920>
    2528:	02600e13          	li	t2,38
    252c:	09d19863          	bne	s1,t3,25bc <fail>

00002530 <test_39>:
    2530:	00000213          	li	s2,0
    2534:	00f00113          	li	s0,15
    2538:	00000013          	nop
    253c:	00000013          	nop
    2540:	ffff80b7          	lui	ra,0xffff8
    2544:	0020d1b3          	srl	s1,ra,s0
    2548:	00120213          	addi	s2,s2,1
    254c:	00200293          	li	s3,2
    2550:	fe5212e3          	bne	s2,s3,2534 <test_39+0x4>
    2554:	00020eb7          	lui	t3,0x20
    2558:	fffe8e93          	addi	t3,t3,-1 # 1ffff <begin_signature+0x1da1f>
    255c:	02700e13          	li	t2,39
    2560:	05d19e63          	bne	s1,t3,25bc <fail>

00002564 <test_40>:
    2564:	00f00093          	li	ra,15
    2568:	00105133          	srl	s0,zero,ra
    256c:	00000e93          	li	t3,0
    2570:	02800e13          	li	t2,40
    2574:	05d11463          	bne	s0,t3,25bc <fail>

00002578 <test_41>:
    2578:	02000093          	li	ra,32
    257c:	0000d133          	srl	s0,ra,zero
    2580:	02000e93          	li	t3,32
    2584:	02900e13          	li	t2,41
    2588:	03d11a63          	bne	s0,t3,25bc <fail>

0000258c <test_42>:
    258c:	000050b3          	srl	ra,zero,zero
    2590:	00000e93          	li	t3,0
    2594:	02a00e13          	li	t2,42
    2598:	03d09263          	bne	ra,t3,25bc <fail>

0000259c <test_43>:
    259c:	40000093          	li	ra,1024
    25a0:	00001137          	lui	s0,0x1
    25a4:	80010113          	addi	s0,s0,-2048 # 800 <_start-0x1800>
    25a8:	0020d033          	srl	zero,ra,s0
    25ac:	00000e93          	li	t3,0
    25b0:	02b00e13          	li	t2,43
    25b4:	01d01463          	bne	zero,t3,25bc <fail>
    25b8:	01c01c63          	bne	zero,t2,25d0 <pass>

000025bc <fail>:
    25bc:	000e0863          	beqz	t2,25cc <fail+0x10>
    25c0:	001e1e13          	slli	t2,t2,0x1
    25c4:	001e6e13          	ori	t2,t2,1
    25c8:	51ee1073          	csrw	tohost,t2
    25cc:	00000063          	b	25cc <fail+0x10>

000025d0 <pass>:
    25d0:	51e0d073          	csrwi	tohost,1
    25d4:	00000063          	b	25d4 <pass+0x4>
    25d8:	00000013          	nop
    25dc:	00000013          	nop
