
rv32ui-p-mulhu:     file format elf32-littleriscv


Disassembly of section .text:

00002000 <_start>:
    2000:	00000093          	li	ra,0
    2004:	00000113          	li	s0,0
    2008:	0220b1b3          	mulhu	s1,ra,s0
    200c:	00000e93          	li	t3,0
    2010:	00200e13          	li	t2,2
    2014:	45d19a63          	bne	s1,t3,2468 <fail>

00002018 <test_3>:
    2018:	00100093          	li	ra,1
    201c:	00100113          	li	s0,1
    2020:	0220b1b3          	mulhu	s1,ra,s0
    2024:	00000e93          	li	t3,0
    2028:	00300e13          	li	t2,3
    202c:	43d19e63          	bne	s1,t3,2468 <fail>

00002030 <test_4>:
    2030:	00300093          	li	ra,3
    2034:	00700113          	li	s0,7
    2038:	0220b1b3          	mulhu	s1,ra,s0
    203c:	00000e93          	li	t3,0
    2040:	00400e13          	li	t2,4
    2044:	43d19263          	bne	s1,t3,2468 <fail>

00002048 <test_5>:
    2048:	00000093          	li	ra,0
    204c:	ffff8137          	lui	s0,0xffff8
    2050:	0220b1b3          	mulhu	s1,ra,s0
    2054:	00000e93          	li	t3,0
    2058:	00500e13          	li	t2,5
    205c:	41d19663          	bne	s1,t3,2468 <fail>

00002060 <test_6>:
    2060:	800000b7          	lui	ra,0x80000
    2064:	00000113          	li	s0,0
    2068:	0220b1b3          	mulhu	s1,ra,s0
    206c:	00000e93          	li	t3,0
    2070:	00600e13          	li	t2,6
    2074:	3fd19a63          	bne	s1,t3,2468 <fail>

00002078 <test_7>:
    2078:	800000b7          	lui	ra,0x80000
    207c:	ffff8137          	lui	s0,0xffff8
    2080:	0220b1b3          	mulhu	s1,ra,s0
    2084:	7fffceb7          	lui	t3,0x7fffc
    2088:	00700e13          	li	t2,7
    208c:	3dd19e63          	bne	s1,t3,2468 <fail>

00002090 <test_30>:
    2090:	aaaab0b7          	lui	ra,0xaaaab
    2094:	aab08093          	addi	ra,ra,-1365 # aaaaaaab <begin_signature+0xaaaa861b>
    2098:	00030137          	lui	s0,0x30
    209c:	e7d10113          	addi	s0,s0,-387 # 2fe7d <begin_signature+0x2d9ed>
    20a0:	0220b1b3          	mulhu	s1,ra,s0
    20a4:	00020eb7          	lui	t3,0x20
    20a8:	efee8e93          	addi	t3,t3,-258 # 1fefe <begin_signature+0x1da6e>
    20ac:	01e00e13          	li	t2,30
    20b0:	3bd19c63          	bne	s1,t3,2468 <fail>

000020b4 <test_31>:
    20b4:	000300b7          	lui	ra,0x30
    20b8:	e7d08093          	addi	ra,ra,-387 # 2fe7d <begin_signature+0x2d9ed>
    20bc:	aaaab137          	lui	s0,0xaaaab
    20c0:	aab10113          	addi	s0,s0,-1365 # aaaaaaab <begin_signature+0xaaaa861b>
    20c4:	0220b1b3          	mulhu	s1,ra,s0
    20c8:	00020eb7          	lui	t3,0x20
    20cc:	efee8e93          	addi	t3,t3,-258 # 1fefe <begin_signature+0x1da6e>
    20d0:	01f00e13          	li	t2,31
    20d4:	39d19a63          	bne	s1,t3,2468 <fail>

000020d8 <test_8>:
    20d8:	00d000b7          	lui	ra,0xd00
    20dc:	00b00137          	lui	s0,0xb00
    20e0:	0220b0b3          	mulhu	ra,ra,s0
    20e4:	00009eb7          	lui	t3,0x9
    20e8:	f00e8e93          	addi	t3,t3,-256 # 8f00 <begin_signature+0x6a70>
    20ec:	00800e13          	li	t2,8
    20f0:	37d09c63          	bne	ra,t3,2468 <fail>

000020f4 <test_9>:
    20f4:	00e000b7          	lui	ra,0xe00
    20f8:	00b00137          	lui	s0,0xb00
    20fc:	0220b133          	mulhu	s0,ra,s0
    2100:	0000aeb7          	lui	t3,0xa
    2104:	a00e8e93          	addi	t3,t3,-1536 # 9a00 <begin_signature+0x7570>
    2108:	00900e13          	li	t2,9
    210c:	35d11e63          	bne	s0,t3,2468 <fail>

00002110 <test_10>:
    2110:	00d000b7          	lui	ra,0xd00
    2114:	0210b0b3          	mulhu	ra,ra,ra
    2118:	0000beb7          	lui	t3,0xb
    211c:	900e8e93          	addi	t3,t3,-1792 # a900 <begin_signature+0x8470>
    2120:	00a00e13          	li	t2,10
    2124:	35d09263          	bne	ra,t3,2468 <fail>

00002128 <test_11>:
    2128:	00000213          	li	s2,0
    212c:	00d000b7          	lui	ra,0xd00
    2130:	00b00137          	lui	s0,0xb00
    2134:	0220b1b3          	mulhu	s1,ra,s0
    2138:	00018313          	mv	s4,s1
    213c:	00120213          	addi	s2,s2,1
    2140:	00200293          	li	s3,2
    2144:	fe5214e3          	bne	s2,s3,212c <test_11+0x4>
    2148:	00009eb7          	lui	t3,0x9
    214c:	f00e8e93          	addi	t3,t3,-256 # 8f00 <begin_signature+0x6a70>
    2150:	00b00e13          	li	t2,11
    2154:	31d31a63          	bne	s4,t3,2468 <fail>

00002158 <test_12>:
    2158:	00000213          	li	s2,0
    215c:	00e000b7          	lui	ra,0xe00
    2160:	00b00137          	lui	s0,0xb00
    2164:	0220b1b3          	mulhu	s1,ra,s0
    2168:	00000013          	nop
    216c:	00018313          	mv	s4,s1
    2170:	00120213          	addi	s2,s2,1
    2174:	00200293          	li	s3,2
    2178:	fe5212e3          	bne	s2,s3,215c <test_12+0x4>
    217c:	0000aeb7          	lui	t3,0xa
    2180:	a00e8e93          	addi	t3,t3,-1536 # 9a00 <begin_signature+0x7570>
    2184:	00c00e13          	li	t2,12
    2188:	2fd31063          	bne	s4,t3,2468 <fail>

0000218c <test_13>:
    218c:	00000213          	li	s2,0
    2190:	00f000b7          	lui	ra,0xf00
    2194:	00b00137          	lui	s0,0xb00
    2198:	0220b1b3          	mulhu	s1,ra,s0
    219c:	00000013          	nop
    21a0:	00000013          	nop
    21a4:	00018313          	mv	s4,s1
    21a8:	00120213          	addi	s2,s2,1
    21ac:	00200293          	li	s3,2
    21b0:	fe5210e3          	bne	s2,s3,2190 <test_13+0x4>
    21b4:	0000aeb7          	lui	t3,0xa
    21b8:	500e8e93          	addi	t3,t3,1280 # a500 <begin_signature+0x8070>
    21bc:	00d00e13          	li	t2,13
    21c0:	2bd31463          	bne	s4,t3,2468 <fail>

000021c4 <test_14>:
    21c4:	00000213          	li	s2,0
    21c8:	00d000b7          	lui	ra,0xd00
    21cc:	00b00137          	lui	s0,0xb00
    21d0:	0220b1b3          	mulhu	s1,ra,s0
    21d4:	00120213          	addi	s2,s2,1
    21d8:	00200293          	li	s3,2
    21dc:	fe5216e3          	bne	s2,s3,21c8 <test_14+0x4>
    21e0:	00009eb7          	lui	t3,0x9
    21e4:	f00e8e93          	addi	t3,t3,-256 # 8f00 <begin_signature+0x6a70>
    21e8:	00e00e13          	li	t2,14
    21ec:	27d19e63          	bne	s1,t3,2468 <fail>

000021f0 <test_15>:
    21f0:	00000213          	li	s2,0
    21f4:	00e000b7          	lui	ra,0xe00
    21f8:	00b00137          	lui	s0,0xb00
    21fc:	00000013          	nop
    2200:	0220b1b3          	mulhu	s1,ra,s0
    2204:	00120213          	addi	s2,s2,1
    2208:	00200293          	li	s3,2
    220c:	fe5214e3          	bne	s2,s3,21f4 <test_15+0x4>
    2210:	0000aeb7          	lui	t3,0xa
    2214:	a00e8e93          	addi	t3,t3,-1536 # 9a00 <begin_signature+0x7570>
    2218:	00f00e13          	li	t2,15
    221c:	25d19663          	bne	s1,t3,2468 <fail>

00002220 <test_16>:
    2220:	00000213          	li	s2,0
    2224:	00f000b7          	lui	ra,0xf00
    2228:	00b00137          	lui	s0,0xb00
    222c:	00000013          	nop
    2230:	00000013          	nop
    2234:	0220b1b3          	mulhu	s1,ra,s0
    2238:	00120213          	addi	s2,s2,1
    223c:	00200293          	li	s3,2
    2240:	fe5212e3          	bne	s2,s3,2224 <test_16+0x4>
    2244:	0000aeb7          	lui	t3,0xa
    2248:	500e8e93          	addi	t3,t3,1280 # a500 <begin_signature+0x8070>
    224c:	01000e13          	li	t2,16
    2250:	21d19c63          	bne	s1,t3,2468 <fail>

00002254 <test_17>:
    2254:	00000213          	li	s2,0
    2258:	00d000b7          	lui	ra,0xd00
    225c:	00000013          	nop
    2260:	00b00137          	lui	s0,0xb00
    2264:	0220b1b3          	mulhu	s1,ra,s0
    2268:	00120213          	addi	s2,s2,1
    226c:	00200293          	li	s3,2
    2270:	fe5214e3          	bne	s2,s3,2258 <test_17+0x4>
    2274:	00009eb7          	lui	t3,0x9
    2278:	f00e8e93          	addi	t3,t3,-256 # 8f00 <begin_signature+0x6a70>
    227c:	01100e13          	li	t2,17
    2280:	1fd19463          	bne	s1,t3,2468 <fail>

00002284 <test_18>:
    2284:	00000213          	li	s2,0
    2288:	00e000b7          	lui	ra,0xe00
    228c:	00000013          	nop
    2290:	00b00137          	lui	s0,0xb00
    2294:	00000013          	nop
    2298:	0220b1b3          	mulhu	s1,ra,s0
    229c:	00120213          	addi	s2,s2,1
    22a0:	00200293          	li	s3,2
    22a4:	fe5212e3          	bne	s2,s3,2288 <test_18+0x4>
    22a8:	0000aeb7          	lui	t3,0xa
    22ac:	a00e8e93          	addi	t3,t3,-1536 # 9a00 <begin_signature+0x7570>
    22b0:	01200e13          	li	t2,18
    22b4:	1bd19a63          	bne	s1,t3,2468 <fail>

000022b8 <test_19>:
    22b8:	00000213          	li	s2,0
    22bc:	00f000b7          	lui	ra,0xf00
    22c0:	00000013          	nop
    22c4:	00000013          	nop
    22c8:	00b00137          	lui	s0,0xb00
    22cc:	0220b1b3          	mulhu	s1,ra,s0
    22d0:	00120213          	addi	s2,s2,1
    22d4:	00200293          	li	s3,2
    22d8:	fe5212e3          	bne	s2,s3,22bc <test_19+0x4>
    22dc:	0000aeb7          	lui	t3,0xa
    22e0:	500e8e93          	addi	t3,t3,1280 # a500 <begin_signature+0x8070>
    22e4:	01300e13          	li	t2,19
    22e8:	19d19063          	bne	s1,t3,2468 <fail>

000022ec <test_20>:
    22ec:	00000213          	li	s2,0
    22f0:	00b00137          	lui	s0,0xb00
    22f4:	00d000b7          	lui	ra,0xd00
    22f8:	0220b1b3          	mulhu	s1,ra,s0
    22fc:	00120213          	addi	s2,s2,1
    2300:	00200293          	li	s3,2
    2304:	fe5216e3          	bne	s2,s3,22f0 <test_20+0x4>
    2308:	00009eb7          	lui	t3,0x9
    230c:	f00e8e93          	addi	t3,t3,-256 # 8f00 <begin_signature+0x6a70>
    2310:	01400e13          	li	t2,20
    2314:	15d19a63          	bne	s1,t3,2468 <fail>

00002318 <test_21>:
    2318:	00000213          	li	s2,0
    231c:	00b00137          	lui	s0,0xb00
    2320:	00e000b7          	lui	ra,0xe00
    2324:	00000013          	nop
    2328:	0220b1b3          	mulhu	s1,ra,s0
    232c:	00120213          	addi	s2,s2,1
    2330:	00200293          	li	s3,2
    2334:	fe5214e3          	bne	s2,s3,231c <test_21+0x4>
    2338:	0000aeb7          	lui	t3,0xa
    233c:	a00e8e93          	addi	t3,t3,-1536 # 9a00 <begin_signature+0x7570>
    2340:	01500e13          	li	t2,21
    2344:	13d19263          	bne	s1,t3,2468 <fail>

00002348 <test_22>:
    2348:	00000213          	li	s2,0
    234c:	00b00137          	lui	s0,0xb00
    2350:	00f000b7          	lui	ra,0xf00
    2354:	00000013          	nop
    2358:	00000013          	nop
    235c:	0220b1b3          	mulhu	s1,ra,s0
    2360:	00120213          	addi	s2,s2,1
    2364:	00200293          	li	s3,2
    2368:	fe5212e3          	bne	s2,s3,234c <test_22+0x4>
    236c:	0000aeb7          	lui	t3,0xa
    2370:	500e8e93          	addi	t3,t3,1280 # a500 <begin_signature+0x8070>
    2374:	01600e13          	li	t2,22
    2378:	0fd19863          	bne	s1,t3,2468 <fail>

0000237c <test_23>:
    237c:	00000213          	li	s2,0
    2380:	00b00137          	lui	s0,0xb00
    2384:	00000013          	nop
    2388:	00d000b7          	lui	ra,0xd00
    238c:	0220b1b3          	mulhu	s1,ra,s0
    2390:	00120213          	addi	s2,s2,1
    2394:	00200293          	li	s3,2
    2398:	fe5214e3          	bne	s2,s3,2380 <test_23+0x4>
    239c:	00009eb7          	lui	t3,0x9
    23a0:	f00e8e93          	addi	t3,t3,-256 # 8f00 <begin_signature+0x6a70>
    23a4:	01700e13          	li	t2,23
    23a8:	0dd19063          	bne	s1,t3,2468 <fail>

000023ac <test_24>:
    23ac:	00000213          	li	s2,0
    23b0:	00b00137          	lui	s0,0xb00
    23b4:	00000013          	nop
    23b8:	00e000b7          	lui	ra,0xe00
    23bc:	00000013          	nop
    23c0:	0220b1b3          	mulhu	s1,ra,s0
    23c4:	00120213          	addi	s2,s2,1
    23c8:	00200293          	li	s3,2
    23cc:	fe5212e3          	bne	s2,s3,23b0 <test_24+0x4>
    23d0:	0000aeb7          	lui	t3,0xa
    23d4:	a00e8e93          	addi	t3,t3,-1536 # 9a00 <begin_signature+0x7570>
    23d8:	01800e13          	li	t2,24
    23dc:	09d19663          	bne	s1,t3,2468 <fail>

000023e0 <test_25>:
    23e0:	00000213          	li	s2,0
    23e4:	00b00137          	lui	s0,0xb00
    23e8:	00000013          	nop
    23ec:	00000013          	nop
    23f0:	00f000b7          	lui	ra,0xf00
    23f4:	0220b1b3          	mulhu	s1,ra,s0
    23f8:	00120213          	addi	s2,s2,1
    23fc:	00200293          	li	s3,2
    2400:	fe5212e3          	bne	s2,s3,23e4 <test_25+0x4>
    2404:	0000aeb7          	lui	t3,0xa
    2408:	500e8e93          	addi	t3,t3,1280 # a500 <begin_signature+0x8070>
    240c:	01900e13          	li	t2,25
    2410:	05d19c63          	bne	s1,t3,2468 <fail>

00002414 <test_26>:
    2414:	7c0000b7          	lui	ra,0x7c000
    2418:	02103133          	mulhu	s0,zero,ra
    241c:	00000e93          	li	t3,0
    2420:	01a00e13          	li	t2,26
    2424:	05d11263          	bne	s0,t3,2468 <fail>

00002428 <test_27>:
    2428:	800000b7          	lui	ra,0x80000
    242c:	0200b133          	mulhu	s0,ra,zero
    2430:	00000e93          	li	t3,0
    2434:	01b00e13          	li	t2,27
    2438:	03d11863          	bne	s0,t3,2468 <fail>

0000243c <test_28>:
    243c:	020030b3          	mulhu	ra,zero,zero
    2440:	00000e93          	li	t3,0
    2444:	01c00e13          	li	t2,28
    2448:	03d09063          	bne	ra,t3,2468 <fail>

0000244c <test_29>:
    244c:	021000b7          	lui	ra,0x2100
    2450:	02200137          	lui	s0,0x2200
    2454:	0220b033          	mulhu	zero,ra,s0
    2458:	00000e93          	li	t3,0
    245c:	01d00e13          	li	t2,29
    2460:	01d01463          	bne	zero,t3,2468 <fail>
    2464:	01c01c63          	bne	zero,t2,247c <pass>

00002468 <fail>:
    2468:	000e0863          	beqz	t2,2478 <fail+0x10>
    246c:	001e1e13          	slli	t2,t2,0x1
    2470:	001e6e13          	ori	t2,t2,1
    2474:	51ee1073          	csrw	tohost,t2
    2478:	00000063          	b	2478 <fail+0x10>

0000247c <pass>:
    247c:	51e0d073          	csrwi	tohost,1
    2480:	00000063          	b	2480 <pass+0x4>
    2484:	00000013          	nop
    2488:	00000013          	nop
    248c:	00000013          	nop
