
rv32ui-p-slli:     file format elf32-littleriscv


Disassembly of section .text:

00002000 <_start>:
    2000:	00100093          	li	ra,1
    2004:	00009193          	slli	s1,ra,0x0
    2008:	00100e93          	li	t3,1
    200c:	00200e13          	li	t2,2
    2010:	27d19a63          	bne	s1,t3,2284 <fail>

00002014 <test_3>:
    2014:	00100093          	li	ra,1
    2018:	00109193          	slli	s1,ra,0x1
    201c:	00200e93          	li	t3,2
    2020:	00300e13          	li	t2,3
    2024:	27d19063          	bne	s1,t3,2284 <fail>

00002028 <test_4>:
    2028:	00100093          	li	ra,1
    202c:	00709193          	slli	s1,ra,0x7
    2030:	08000e93          	li	t3,128
    2034:	00400e13          	li	t2,4
    2038:	25d19663          	bne	s1,t3,2284 <fail>

0000203c <test_5>:
    203c:	00100093          	li	ra,1
    2040:	00e09193          	slli	s1,ra,0xe
    2044:	00004eb7          	lui	t3,0x4
    2048:	00500e13          	li	t2,5
    204c:	23d19c63          	bne	s1,t3,2284 <fail>

00002050 <test_6>:
    2050:	00100093          	li	ra,1
    2054:	01f09193          	slli	s1,ra,0x1f
    2058:	80000eb7          	lui	t3,0x80000
    205c:	00600e13          	li	t2,6
    2060:	23d19263          	bne	s1,t3,2284 <fail>

00002064 <test_7>:
    2064:	fff00093          	li	ra,-1
    2068:	00009193          	slli	s1,ra,0x0
    206c:	fff00e93          	li	t3,-1
    2070:	00700e13          	li	t2,7
    2074:	21d19863          	bne	s1,t3,2284 <fail>

00002078 <test_8>:
    2078:	fff00093          	li	ra,-1
    207c:	00109193          	slli	s1,ra,0x1
    2080:	ffe00e93          	li	t3,-2
    2084:	00800e13          	li	t2,8
    2088:	1fd19e63          	bne	s1,t3,2284 <fail>

0000208c <test_9>:
    208c:	fff00093          	li	ra,-1
    2090:	00709193          	slli	s1,ra,0x7
    2094:	f8000e93          	li	t3,-128
    2098:	00900e13          	li	t2,9
    209c:	1fd19463          	bne	s1,t3,2284 <fail>

000020a0 <test_10>:
    20a0:	fff00093          	li	ra,-1
    20a4:	00e09193          	slli	s1,ra,0xe
    20a8:	ffffceb7          	lui	t3,0xffffc
    20ac:	00a00e13          	li	t2,10
    20b0:	1dd19a63          	bne	s1,t3,2284 <fail>

000020b4 <test_11>:
    20b4:	fff00093          	li	ra,-1
    20b8:	01f09193          	slli	s1,ra,0x1f
    20bc:	80000eb7          	lui	t3,0x80000
    20c0:	00b00e13          	li	t2,11
    20c4:	1dd19063          	bne	s1,t3,2284 <fail>

000020c8 <test_12>:
    20c8:	212120b7          	lui	ra,0x21212
    20cc:	12108093          	addi	ra,ra,289 # 21212121 <begin_signature+0x2120fe81>
    20d0:	00009193          	slli	s1,ra,0x0
    20d4:	21212eb7          	lui	t3,0x21212
    20d8:	121e8e93          	addi	t3,t3,289 # 21212121 <begin_signature+0x2120fe81>
    20dc:	00c00e13          	li	t2,12
    20e0:	1bd19263          	bne	s1,t3,2284 <fail>

000020e4 <test_13>:
    20e4:	212120b7          	lui	ra,0x21212
    20e8:	12108093          	addi	ra,ra,289 # 21212121 <begin_signature+0x2120fe81>
    20ec:	00109193          	slli	s1,ra,0x1
    20f0:	42424eb7          	lui	t3,0x42424
    20f4:	242e8e93          	addi	t3,t3,578 # 42424242 <begin_signature+0x42421fa2>
    20f8:	00d00e13          	li	t2,13
    20fc:	19d19463          	bne	s1,t3,2284 <fail>

00002100 <test_14>:
    2100:	212120b7          	lui	ra,0x21212
    2104:	12108093          	addi	ra,ra,289 # 21212121 <begin_signature+0x2120fe81>
    2108:	00709193          	slli	s1,ra,0x7
    210c:	90909eb7          	lui	t3,0x90909
    2110:	080e8e93          	addi	t3,t3,128 # 90909080 <begin_signature+0x90906de0>
    2114:	00e00e13          	li	t2,14
    2118:	17d19663          	bne	s1,t3,2284 <fail>

0000211c <test_15>:
    211c:	212120b7          	lui	ra,0x21212
    2120:	12108093          	addi	ra,ra,289 # 21212121 <begin_signature+0x2120fe81>
    2124:	00e09193          	slli	s1,ra,0xe
    2128:	48484eb7          	lui	t3,0x48484
    212c:	00f00e13          	li	t2,15
    2130:	15d19a63          	bne	s1,t3,2284 <fail>

00002134 <test_16>:
    2134:	212120b7          	lui	ra,0x21212
    2138:	12108093          	addi	ra,ra,289 # 21212121 <begin_signature+0x2120fe81>
    213c:	01f09193          	slli	s1,ra,0x1f
    2140:	80000eb7          	lui	t3,0x80000
    2144:	01000e13          	li	t2,16
    2148:	13d19e63          	bne	s1,t3,2284 <fail>

0000214c <test_17>:
    214c:	00100093          	li	ra,1
    2150:	00709093          	slli	ra,ra,0x7
    2154:	08000e93          	li	t3,128
    2158:	01100e13          	li	t2,17
    215c:	13d09463          	bne	ra,t3,2284 <fail>

00002160 <test_18>:
    2160:	00000213          	li	s2,0
    2164:	00100093          	li	ra,1
    2168:	00709193          	slli	s1,ra,0x7
    216c:	00018313          	mv	s4,s1
    2170:	00120213          	addi	s2,s2,1
    2174:	00200293          	li	s3,2
    2178:	fe5216e3          	bne	s2,s3,2164 <test_18+0x4>
    217c:	08000e93          	li	t3,128
    2180:	01200e13          	li	t2,18
    2184:	11d31063          	bne	s4,t3,2284 <fail>

00002188 <test_19>:
    2188:	00000213          	li	s2,0
    218c:	00100093          	li	ra,1
    2190:	00e09193          	slli	s1,ra,0xe
    2194:	00000013          	nop
    2198:	00018313          	mv	s4,s1
    219c:	00120213          	addi	s2,s2,1
    21a0:	00200293          	li	s3,2
    21a4:	fe5214e3          	bne	s2,s3,218c <test_19+0x4>
    21a8:	00004eb7          	lui	t3,0x4
    21ac:	01300e13          	li	t2,19
    21b0:	0dd31a63          	bne	s4,t3,2284 <fail>

000021b4 <test_20>:
    21b4:	00000213          	li	s2,0
    21b8:	00100093          	li	ra,1
    21bc:	01f09193          	slli	s1,ra,0x1f
    21c0:	00000013          	nop
    21c4:	00000013          	nop
    21c8:	00018313          	mv	s4,s1
    21cc:	00120213          	addi	s2,s2,1
    21d0:	00200293          	li	s3,2
    21d4:	fe5212e3          	bne	s2,s3,21b8 <test_20+0x4>
    21d8:	80000eb7          	lui	t3,0x80000
    21dc:	01400e13          	li	t2,20
    21e0:	0bd31263          	bne	s4,t3,2284 <fail>

000021e4 <test_21>:
    21e4:	00000213          	li	s2,0
    21e8:	00100093          	li	ra,1
    21ec:	00709193          	slli	s1,ra,0x7
    21f0:	00120213          	addi	s2,s2,1
    21f4:	00200293          	li	s3,2
    21f8:	fe5218e3          	bne	s2,s3,21e8 <test_21+0x4>
    21fc:	08000e93          	li	t3,128
    2200:	01500e13          	li	t2,21
    2204:	09d19063          	bne	s1,t3,2284 <fail>

00002208 <test_22>:
    2208:	00000213          	li	s2,0
    220c:	00100093          	li	ra,1
    2210:	00000013          	nop
    2214:	00e09193          	slli	s1,ra,0xe
    2218:	00120213          	addi	s2,s2,1
    221c:	00200293          	li	s3,2
    2220:	fe5216e3          	bne	s2,s3,220c <test_22+0x4>
    2224:	00004eb7          	lui	t3,0x4
    2228:	01600e13          	li	t2,22
    222c:	05d19c63          	bne	s1,t3,2284 <fail>

00002230 <test_23>:
    2230:	00000213          	li	s2,0
    2234:	00100093          	li	ra,1
    2238:	00000013          	nop
    223c:	00000013          	nop
    2240:	01f09193          	slli	s1,ra,0x1f
    2244:	00120213          	addi	s2,s2,1
    2248:	00200293          	li	s3,2
    224c:	fe5214e3          	bne	s2,s3,2234 <test_23+0x4>
    2250:	80000eb7          	lui	t3,0x80000
    2254:	01700e13          	li	t2,23
    2258:	03d19663          	bne	s1,t3,2284 <fail>

0000225c <test_24>:
    225c:	01f01093          	slli	ra,zero,0x1f
    2260:	00000e93          	li	t3,0
    2264:	01800e13          	li	t2,24
    2268:	01d09e63          	bne	ra,t3,2284 <fail>

0000226c <test_25>:
    226c:	02100093          	li	ra,33
    2270:	01409013          	slli	zero,ra,0x14
    2274:	00000e93          	li	t3,0
    2278:	01900e13          	li	t2,25
    227c:	01d01463          	bne	zero,t3,2284 <fail>
    2280:	01c01c63          	bne	zero,t2,2298 <pass>

00002284 <fail>:
    2284:	000e0863          	beqz	t2,2294 <fail+0x10>
    2288:	001e1e13          	slli	t2,t2,0x1
    228c:	001e6e13          	ori	t2,t2,1
    2290:	51ee1073          	csrw	tohost,t2
    2294:	00000063          	b	2294 <fail+0x10>

00002298 <pass>:
    2298:	51e0d073          	csrwi	tohost,1
    229c:	00000063          	b	229c <pass+0x4>
