
rv32ui-p-jalr:     file format elf32-littleriscv


Disassembly of section .text:

00002000 <_start>:
    2000:	00200e13          	li	t2,2
    2004:	00000f93          	li	gp,0
    2008:	00000117          	auipc	s0,0x0
    200c:	01810113          	addi	s0,s0,24 # 2020 <target_2>

00002010 <linkaddr_2>:
    2010:	000109e7          	jalr	a1,s0
    2014:	00000013          	nop
    2018:	00000013          	nop
    201c:	0e40006f          	j	2100 <fail>

00002020 <target_2>:
    2020:	00000097          	auipc	ra,0x0
    2024:	ff008093          	addi	ra,ra,-16 # 2010 <linkaddr_2>
    2028:	00408093          	addi	ra,ra,4
    202c:	0d309a63          	bne	ra,a1,2100 <fail>

00002030 <test_3>:
    2030:	00300e13          	li	t2,3
    2034:	00000f93          	li	gp,0
    2038:	00000197          	auipc	s1,0x0
    203c:	01418193          	addi	s1,s1,20 # 204c <target_3>

00002040 <linkaddr_3>:
    2040:	00018067          	jr	s1
    2044:	00000013          	nop
    2048:	0b80006f          	j	2100 <fail>

0000204c <target_3>:
    204c:	0a0f9a63          	bnez	gp,2100 <fail>

00002050 <test_4>:
    2050:	00400e13          	li	t2,4
    2054:	00000213          	li	s2,0
    2058:	00000317          	auipc	s4,0x0
    205c:	01030313          	addi	s4,s4,16 # 2068 <test_4+0x18>
    2060:	000309e7          	jalr	a1,s4
    2064:	09c01e63          	bne	zero,t2,2100 <fail>
    2068:	00120213          	addi	s2,s2,1
    206c:	00200293          	li	s3,2
    2070:	fe5214e3          	bne	s2,s3,2058 <test_4+0x8>

00002074 <test_5>:
    2074:	00500e13          	li	t2,5
    2078:	00000213          	li	s2,0
    207c:	00000317          	auipc	s4,0x0
    2080:	01430313          	addi	s4,s4,20 # 2090 <test_5+0x1c>
    2084:	00000013          	nop
    2088:	000309e7          	jalr	a1,s4
    208c:	07c01a63          	bne	zero,t2,2100 <fail>
    2090:	00120213          	addi	s2,s2,1
    2094:	00200293          	li	s3,2
    2098:	fe5212e3          	bne	s2,s3,207c <test_5+0x8>

0000209c <test_6>:
    209c:	00600e13          	li	t2,6
    20a0:	00000213          	li	s2,0
    20a4:	00000317          	auipc	s4,0x0
    20a8:	01830313          	addi	s4,s4,24 # 20bc <test_6+0x20>
    20ac:	00000013          	nop
    20b0:	00000013          	nop
    20b4:	000309e7          	jalr	a1,s4
    20b8:	05c01463          	bne	zero,t2,2100 <fail>
    20bc:	00120213          	addi	s2,s2,1
    20c0:	00200293          	li	s3,2
    20c4:	fe5210e3          	bne	s2,s3,20a4 <test_6+0x8>

000020c8 <test_7>:
    20c8:	00100093          	li	ra,1
    20cc:	00000117          	auipc	s0,0x0
    20d0:	01c10113          	addi	s0,s0,28 # 20e8 <test_7+0x20>
    20d4:	ffc109e7          	jalr	a1,s0,-4
    20d8:	00108093          	addi	ra,ra,1
    20dc:	00108093          	addi	ra,ra,1
    20e0:	00108093          	addi	ra,ra,1
    20e4:	00108093          	addi	ra,ra,1
    20e8:	00108093          	addi	ra,ra,1
    20ec:	00108093          	addi	ra,ra,1
    20f0:	00400e93          	li	t3,4
    20f4:	00700e13          	li	t2,7
    20f8:	01d09463          	bne	ra,t3,2100 <fail>
    20fc:	01c01c63          	bne	zero,t2,2114 <pass>

00002100 <fail>:
    2100:	000e0863          	beqz	t2,2110 <fail+0x10>
    2104:	001e1e13          	slli	t2,t2,0x1
    2108:	001e6e13          	ori	t2,t2,1
    210c:	51ee1073          	csrw	tohost,t2
    2110:	00000063          	b	2110 <fail+0x10>

00002114 <pass>:
    2114:	51e0d073          	csrwi	tohost,1
    2118:	00000063          	b	2118 <pass+0x4>
    211c:	00000013          	nop
