
rv32ui-p-amoadd_w:     file format elf32-littleriscv


Disassembly of section .text:

00002000 <_start>:
    2000:	80000937          	lui	a0,0x80000
    2004:	80000993          	li	a1,-2048
    2008:	00000a97          	auipc	a3,0x0
    200c:	118a8a93          	addi	a3,a3,280 # 2120 <begin_signature>
    2010:	012aa023          	sw	a0,0(a3)
    2014:	00000013          	nop
    2018:	00000013          	nop
    201c:	00000013          	nop
    2020:	00000013          	nop
    2024:	00000013          	nop
    2028:	00000013          	nop
    202c:	00000013          	nop
    2030:	00000013          	nop
    2034:	00000013          	nop
    2038:	00000013          	nop
    203c:	00000013          	nop
    2040:	00000013          	nop
    2044:	00000013          	nop
    2048:	00000013          	nop
    204c:	00000013          	nop
    2050:	00000013          	nop
    2054:	00000013          	nop
    2058:	00000013          	nop
    205c:	00000013          	nop
    2060:	00000013          	nop
    2064:	00000013          	nop
    2068:	00000013          	nop
    206c:	00000013          	nop
    2070:	00000013          	nop
    2074:	00000013          	nop
    2078:	00000013          	nop
    207c:	00000013          	nop
    2080:	00000013          	nop
    2084:	013aab2f          	amoadd.w	a4,a1,(a3)
    2088:	80000eb7          	lui	t3,0x80000
    208c:	00200e13          	li	t2,2
    2090:	07db1463          	bne	a4,t3,20f8 <fail>

00002094 <test_3>:
    2094:	000aab83          	lw	a5,0(a3)
    2098:	80000eb7          	lui	t3,0x80000
    209c:	800e8e93          	addi	t3,t3,-2048 # 7ffff800 <begin_signature+0x7fffd6e0>
    20a0:	00300e13          	li	t2,3
    20a4:	05db9a63          	bne	a5,t3,20f8 <fail>

000020a8 <test_4>:
    20a8:	800009b7          	lui	a1,0x80000
    20ac:	00004b37          	lui	a4,0x4
    20b0:	016a8bb3          	add	a5,a3,a4
    20b4:	000ba003          	lw	zero,0(a5)
    20b8:	016b8bb3          	add	a5,a5,a4
    20bc:	000ba003          	lw	zero,0(a5)
    20c0:	016b8bb3          	add	a5,a5,a4
    20c4:	000ba003          	lw	zero,0(a5)
    20c8:	016b8bb3          	add	a5,a5,a4
    20cc:	000ba003          	lw	zero,0(a5)
    20d0:	013aab2f          	amoadd.w	a4,a1,(a3)
    20d4:	80000eb7          	lui	t3,0x80000
    20d8:	800e8e93          	addi	t3,t3,-2048 # 7ffff800 <begin_signature+0x7fffd6e0>
    20dc:	00400e13          	li	t2,4
    20e0:	01db1c63          	bne	a4,t3,20f8 <fail>

000020e4 <test_5>:
    20e4:	000aab83          	lw	a5,0(a3)
    20e8:	80000e93          	li	t3,-2048
    20ec:	00500e13          	li	t2,5
    20f0:	01db9463          	bne	a5,t3,20f8 <fail>
    20f4:	01c01c63          	bne	zero,t2,210c <pass>

000020f8 <fail>:
    20f8:	000e0863          	beqz	t2,2108 <fail+0x10>
    20fc:	001e1e13          	slli	t2,t2,0x1
    2100:	001e6e13          	ori	t2,t2,1
    2104:	51ee1073          	csrw	tohost,t2
    2108:	00000063          	b	2108 <fail+0x10>

0000210c <pass>:
    210c:	51e0d073          	csrwi	tohost,1
    2110:	00000063          	b	2110 <pass+0x4>
    2114:	00000013          	nop
    2118:	00000013          	nop
    211c:	00000013          	nop
