
rv32ui-p-slti:     file format elf32-littleriscv


Disassembly of section .text:

00002000 <_start>:
    2000:	00000093          	li	ra,0
    2004:	0000a193          	slti	s1,ra,0
    2008:	00000e93          	li	t3,0
    200c:	00200e13          	li	t2,2
    2010:	27d19263          	bne	s1,t3,2274 <fail>

00002014 <test_3>:
    2014:	00100093          	li	ra,1
    2018:	0010a193          	slti	s1,ra,1
    201c:	00000e93          	li	t3,0
    2020:	00300e13          	li	t2,3
    2024:	25d19863          	bne	s1,t3,2274 <fail>

00002028 <test_4>:
    2028:	00300093          	li	ra,3
    202c:	0070a193          	slti	s1,ra,7
    2030:	00100e93          	li	t3,1
    2034:	00400e13          	li	t2,4
    2038:	23d19e63          	bne	s1,t3,2274 <fail>

0000203c <test_5>:
    203c:	00700093          	li	ra,7
    2040:	0030a193          	slti	s1,ra,3
    2044:	00000e93          	li	t3,0
    2048:	00500e13          	li	t2,5
    204c:	23d19463          	bne	s1,t3,2274 <fail>

00002050 <test_6>:
    2050:	00000093          	li	ra,0
    2054:	8000a193          	slti	s1,ra,-2048
    2058:	00000e93          	li	t3,0
    205c:	00600e13          	li	t2,6
    2060:	21d19a63          	bne	s1,t3,2274 <fail>

00002064 <test_7>:
    2064:	800000b7          	lui	ra,0x80000
    2068:	0000a193          	slti	s1,ra,0
    206c:	00100e93          	li	t3,1
    2070:	00700e13          	li	t2,7
    2074:	21d19063          	bne	s1,t3,2274 <fail>

00002078 <test_8>:
    2078:	800000b7          	lui	ra,0x80000
    207c:	8000a193          	slti	s1,ra,-2048
    2080:	00100e93          	li	t3,1
    2084:	00800e13          	li	t2,8
    2088:	1fd19663          	bne	s1,t3,2274 <fail>

0000208c <test_9>:
    208c:	00000093          	li	ra,0
    2090:	7ff0a193          	slti	s1,ra,2047
    2094:	00100e93          	li	t3,1
    2098:	00900e13          	li	t2,9
    209c:	1dd19c63          	bne	s1,t3,2274 <fail>

000020a0 <test_10>:
    20a0:	800000b7          	lui	ra,0x80000
    20a4:	fff08093          	addi	ra,ra,-1 # 7fffffff <begin_signature+0x7fffdd6f>
    20a8:	0000a193          	slti	s1,ra,0
    20ac:	00000e93          	li	t3,0
    20b0:	00a00e13          	li	t2,10
    20b4:	1dd19063          	bne	s1,t3,2274 <fail>

000020b8 <test_11>:
    20b8:	800000b7          	lui	ra,0x80000
    20bc:	fff08093          	addi	ra,ra,-1 # 7fffffff <begin_signature+0x7fffdd6f>
    20c0:	7ff0a193          	slti	s1,ra,2047
    20c4:	00000e93          	li	t3,0
    20c8:	00b00e13          	li	t2,11
    20cc:	1bd19463          	bne	s1,t3,2274 <fail>

000020d0 <test_12>:
    20d0:	800000b7          	lui	ra,0x80000
    20d4:	7ff0a193          	slti	s1,ra,2047
    20d8:	00100e93          	li	t3,1
    20dc:	00c00e13          	li	t2,12
    20e0:	19d19a63          	bne	s1,t3,2274 <fail>

000020e4 <test_13>:
    20e4:	800000b7          	lui	ra,0x80000
    20e8:	fff08093          	addi	ra,ra,-1 # 7fffffff <begin_signature+0x7fffdd6f>
    20ec:	8000a193          	slti	s1,ra,-2048
    20f0:	00000e93          	li	t3,0
    20f4:	00d00e13          	li	t2,13
    20f8:	17d19e63          	bne	s1,t3,2274 <fail>

000020fc <test_14>:
    20fc:	00000093          	li	ra,0
    2100:	fff0a193          	slti	s1,ra,-1
    2104:	00000e93          	li	t3,0
    2108:	00e00e13          	li	t2,14
    210c:	17d19463          	bne	s1,t3,2274 <fail>

00002110 <test_15>:
    2110:	fff00093          	li	ra,-1
    2114:	0010a193          	slti	s1,ra,1
    2118:	00100e93          	li	t3,1
    211c:	00f00e13          	li	t2,15
    2120:	15d19a63          	bne	s1,t3,2274 <fail>

00002124 <test_16>:
    2124:	fff00093          	li	ra,-1
    2128:	fff0a193          	slti	s1,ra,-1
    212c:	00000e93          	li	t3,0
    2130:	01000e13          	li	t2,16
    2134:	15d19063          	bne	s1,t3,2274 <fail>

00002138 <test_17>:
    2138:	00b00093          	li	ra,11
    213c:	00d0b093          	sltiu	ra,ra,13
    2140:	00100e93          	li	t3,1
    2144:	01100e13          	li	t2,17
    2148:	13d09663          	bne	ra,t3,2274 <fail>

0000214c <test_18>:
    214c:	00000213          	li	s2,0
    2150:	00f00093          	li	ra,15
    2154:	00a0a193          	slti	s1,ra,10
    2158:	00018313          	mv	s4,s1
    215c:	00120213          	addi	s2,s2,1
    2160:	00200293          	li	s3,2
    2164:	fe5216e3          	bne	s2,s3,2150 <test_18+0x4>
    2168:	00000e93          	li	t3,0
    216c:	01200e13          	li	t2,18
    2170:	11d31263          	bne	s4,t3,2274 <fail>

00002174 <test_19>:
    2174:	00000213          	li	s2,0
    2178:	00a00093          	li	ra,10
    217c:	0100a193          	slti	s1,ra,16
    2180:	00000013          	nop
    2184:	00018313          	mv	s4,s1
    2188:	00120213          	addi	s2,s2,1
    218c:	00200293          	li	s3,2
    2190:	fe5214e3          	bne	s2,s3,2178 <test_19+0x4>
    2194:	00100e93          	li	t3,1
    2198:	01300e13          	li	t2,19
    219c:	0dd31c63          	bne	s4,t3,2274 <fail>

000021a0 <test_20>:
    21a0:	00000213          	li	s2,0
    21a4:	01000093          	li	ra,16
    21a8:	0090a193          	slti	s1,ra,9
    21ac:	00000013          	nop
    21b0:	00000013          	nop
    21b4:	00018313          	mv	s4,s1
    21b8:	00120213          	addi	s2,s2,1
    21bc:	00200293          	li	s3,2
    21c0:	fe5212e3          	bne	s2,s3,21a4 <test_20+0x4>
    21c4:	00000e93          	li	t3,0
    21c8:	01400e13          	li	t2,20
    21cc:	0bd31463          	bne	s4,t3,2274 <fail>

000021d0 <test_21>:
    21d0:	00000213          	li	s2,0
    21d4:	00b00093          	li	ra,11
    21d8:	00f0a193          	slti	s1,ra,15
    21dc:	00120213          	addi	s2,s2,1
    21e0:	00200293          	li	s3,2
    21e4:	fe5218e3          	bne	s2,s3,21d4 <test_21+0x4>
    21e8:	00100e93          	li	t3,1
    21ec:	01500e13          	li	t2,21
    21f0:	09d19263          	bne	s1,t3,2274 <fail>

000021f4 <test_22>:
    21f4:	00000213          	li	s2,0
    21f8:	01100093          	li	ra,17
    21fc:	00000013          	nop
    2200:	0080a193          	slti	s1,ra,8
    2204:	00120213          	addi	s2,s2,1
    2208:	00200293          	li	s3,2
    220c:	fe5216e3          	bne	s2,s3,21f8 <test_22+0x4>
    2210:	00000e93          	li	t3,0
    2214:	01600e13          	li	t2,22
    2218:	05d19e63          	bne	s1,t3,2274 <fail>

0000221c <test_23>:
    221c:	00000213          	li	s2,0
    2220:	00c00093          	li	ra,12
    2224:	00000013          	nop
    2228:	00000013          	nop
    222c:	00e0a193          	slti	s1,ra,14
    2230:	00120213          	addi	s2,s2,1
    2234:	00200293          	li	s3,2
    2238:	fe5214e3          	bne	s2,s3,2220 <test_23+0x4>
    223c:	00100e93          	li	t3,1
    2240:	01700e13          	li	t2,23
    2244:	03d19863          	bne	s1,t3,2274 <fail>

00002248 <test_24>:
    2248:	fff02093          	slti	ra,zero,-1
    224c:	00000e93          	li	t3,0
    2250:	01800e13          	li	t2,24
    2254:	03d09063          	bne	ra,t3,2274 <fail>

00002258 <test_25>:
    2258:	00ff00b7          	lui	ra,0xff0
    225c:	0ff08093          	addi	ra,ra,255 # ff00ff <begin_signature+0xfede6f>
    2260:	fff0a013          	slti	zero,ra,-1
    2264:	00000e93          	li	t3,0
    2268:	01900e13          	li	t2,25
    226c:	01d01463          	bne	zero,t3,2274 <fail>
    2270:	01c01c63          	bne	zero,t2,2288 <pass>

00002274 <fail>:
    2274:	000e0863          	beqz	t2,2284 <fail+0x10>
    2278:	001e1e13          	slli	t2,t2,0x1
    227c:	001e6e13          	ori	t2,t2,1
    2280:	51ee1073          	csrw	tohost,t2
    2284:	00000063          	b	2284 <fail+0x10>

00002288 <pass>:
    2288:	51e0d073          	csrwi	tohost,1
    228c:	00000063          	b	228c <pass+0x4>
