
rv32ui-p-mulhsu:     file format elf32-littleriscv


Disassembly of section .text:

00002000 <_start>:
    2000:	00000093          	li	ra,0
    2004:	00000113          	li	s0,0
    2008:	0220a1b3          	mulhsu	s1,ra,s0
    200c:	00000e93          	li	t3,0
    2010:	00200e13          	li	t2,2
    2014:	41d19663          	bne	s1,t3,2420 <fail>

00002018 <test_3>:
    2018:	00100093          	li	ra,1
    201c:	00100113          	li	s0,1
    2020:	0220a1b3          	mulhsu	s1,ra,s0
    2024:	00000e93          	li	t3,0
    2028:	00300e13          	li	t2,3
    202c:	3fd19a63          	bne	s1,t3,2420 <fail>

00002030 <test_4>:
    2030:	00300093          	li	ra,3
    2034:	00700113          	li	s0,7
    2038:	0220a1b3          	mulhsu	s1,ra,s0
    203c:	00000e93          	li	t3,0
    2040:	00400e13          	li	t2,4
    2044:	3dd19e63          	bne	s1,t3,2420 <fail>

00002048 <test_5>:
    2048:	00000093          	li	ra,0
    204c:	ffff8137          	lui	s0,0xffff8
    2050:	0220a1b3          	mulhsu	s1,ra,s0
    2054:	00000e93          	li	t3,0
    2058:	00500e13          	li	t2,5
    205c:	3dd19263          	bne	s1,t3,2420 <fail>

00002060 <test_6>:
    2060:	800000b7          	lui	ra,0x80000
    2064:	00000113          	li	s0,0
    2068:	0220a1b3          	mulhsu	s1,ra,s0
    206c:	00000e93          	li	t3,0
    2070:	00600e13          	li	t2,6
    2074:	3bd19663          	bne	s1,t3,2420 <fail>

00002078 <test_7>:
    2078:	800000b7          	lui	ra,0x80000
    207c:	ffff8137          	lui	s0,0xffff8
    2080:	0220a1b3          	mulhsu	s1,ra,s0
    2084:	80004eb7          	lui	t3,0x80004
    2088:	00700e13          	li	t2,7
    208c:	39d19a63          	bne	s1,t3,2420 <fail>

00002090 <test_8>:
    2090:	00d000b7          	lui	ra,0xd00
    2094:	00b00137          	lui	s0,0xb00
    2098:	0220a0b3          	mulhsu	ra,ra,s0
    209c:	00009eb7          	lui	t3,0x9
    20a0:	f00e8e93          	addi	t3,t3,-256 # 8f00 <begin_signature+0x6ac0>
    20a4:	00800e13          	li	t2,8
    20a8:	37d09c63          	bne	ra,t3,2420 <fail>

000020ac <test_9>:
    20ac:	00e000b7          	lui	ra,0xe00
    20b0:	00b00137          	lui	s0,0xb00
    20b4:	0220a133          	mulhsu	s0,ra,s0
    20b8:	0000aeb7          	lui	t3,0xa
    20bc:	a00e8e93          	addi	t3,t3,-1536 # 9a00 <begin_signature+0x75c0>
    20c0:	00900e13          	li	t2,9
    20c4:	35d11e63          	bne	s0,t3,2420 <fail>

000020c8 <test_10>:
    20c8:	00d000b7          	lui	ra,0xd00
    20cc:	0210a0b3          	mulhsu	ra,ra,ra
    20d0:	0000beb7          	lui	t3,0xb
    20d4:	900e8e93          	addi	t3,t3,-1792 # a900 <begin_signature+0x84c0>
    20d8:	00a00e13          	li	t2,10
    20dc:	35d09263          	bne	ra,t3,2420 <fail>

000020e0 <test_11>:
    20e0:	00000213          	li	s2,0
    20e4:	00d000b7          	lui	ra,0xd00
    20e8:	00b00137          	lui	s0,0xb00
    20ec:	0220a1b3          	mulhsu	s1,ra,s0
    20f0:	00018313          	mv	s4,s1
    20f4:	00120213          	addi	s2,s2,1
    20f8:	00200293          	li	s3,2
    20fc:	fe5214e3          	bne	s2,s3,20e4 <test_11+0x4>
    2100:	00009eb7          	lui	t3,0x9
    2104:	f00e8e93          	addi	t3,t3,-256 # 8f00 <begin_signature+0x6ac0>
    2108:	00b00e13          	li	t2,11
    210c:	31d31a63          	bne	s4,t3,2420 <fail>

00002110 <test_12>:
    2110:	00000213          	li	s2,0
    2114:	00e000b7          	lui	ra,0xe00
    2118:	00b00137          	lui	s0,0xb00
    211c:	0220a1b3          	mulhsu	s1,ra,s0
    2120:	00000013          	nop
    2124:	00018313          	mv	s4,s1
    2128:	00120213          	addi	s2,s2,1
    212c:	00200293          	li	s3,2
    2130:	fe5212e3          	bne	s2,s3,2114 <test_12+0x4>
    2134:	0000aeb7          	lui	t3,0xa
    2138:	a00e8e93          	addi	t3,t3,-1536 # 9a00 <begin_signature+0x75c0>
    213c:	00c00e13          	li	t2,12
    2140:	2fd31063          	bne	s4,t3,2420 <fail>

00002144 <test_13>:
    2144:	00000213          	li	s2,0
    2148:	00f000b7          	lui	ra,0xf00
    214c:	00b00137          	lui	s0,0xb00
    2150:	0220a1b3          	mulhsu	s1,ra,s0
    2154:	00000013          	nop
    2158:	00000013          	nop
    215c:	00018313          	mv	s4,s1
    2160:	00120213          	addi	s2,s2,1
    2164:	00200293          	li	s3,2
    2168:	fe5210e3          	bne	s2,s3,2148 <test_13+0x4>
    216c:	0000aeb7          	lui	t3,0xa
    2170:	500e8e93          	addi	t3,t3,1280 # a500 <begin_signature+0x80c0>
    2174:	00d00e13          	li	t2,13
    2178:	2bd31463          	bne	s4,t3,2420 <fail>

0000217c <test_14>:
    217c:	00000213          	li	s2,0
    2180:	00d000b7          	lui	ra,0xd00
    2184:	00b00137          	lui	s0,0xb00
    2188:	0220a1b3          	mulhsu	s1,ra,s0
    218c:	00120213          	addi	s2,s2,1
    2190:	00200293          	li	s3,2
    2194:	fe5216e3          	bne	s2,s3,2180 <test_14+0x4>
    2198:	00009eb7          	lui	t3,0x9
    219c:	f00e8e93          	addi	t3,t3,-256 # 8f00 <begin_signature+0x6ac0>
    21a0:	00e00e13          	li	t2,14
    21a4:	27d19e63          	bne	s1,t3,2420 <fail>

000021a8 <test_15>:
    21a8:	00000213          	li	s2,0
    21ac:	00e000b7          	lui	ra,0xe00
    21b0:	00b00137          	lui	s0,0xb00
    21b4:	00000013          	nop
    21b8:	0220a1b3          	mulhsu	s1,ra,s0
    21bc:	00120213          	addi	s2,s2,1
    21c0:	00200293          	li	s3,2
    21c4:	fe5214e3          	bne	s2,s3,21ac <test_15+0x4>
    21c8:	0000aeb7          	lui	t3,0xa
    21cc:	a00e8e93          	addi	t3,t3,-1536 # 9a00 <begin_signature+0x75c0>
    21d0:	00f00e13          	li	t2,15
    21d4:	25d19663          	bne	s1,t3,2420 <fail>

000021d8 <test_16>:
    21d8:	00000213          	li	s2,0
    21dc:	00f000b7          	lui	ra,0xf00
    21e0:	00b00137          	lui	s0,0xb00
    21e4:	00000013          	nop
    21e8:	00000013          	nop
    21ec:	0220a1b3          	mulhsu	s1,ra,s0
    21f0:	00120213          	addi	s2,s2,1
    21f4:	00200293          	li	s3,2
    21f8:	fe5212e3          	bne	s2,s3,21dc <test_16+0x4>
    21fc:	0000aeb7          	lui	t3,0xa
    2200:	500e8e93          	addi	t3,t3,1280 # a500 <begin_signature+0x80c0>
    2204:	01000e13          	li	t2,16
    2208:	21d19c63          	bne	s1,t3,2420 <fail>

0000220c <test_17>:
    220c:	00000213          	li	s2,0
    2210:	00d000b7          	lui	ra,0xd00
    2214:	00000013          	nop
    2218:	00b00137          	lui	s0,0xb00
    221c:	0220a1b3          	mulhsu	s1,ra,s0
    2220:	00120213          	addi	s2,s2,1
    2224:	00200293          	li	s3,2
    2228:	fe5214e3          	bne	s2,s3,2210 <test_17+0x4>
    222c:	00009eb7          	lui	t3,0x9
    2230:	f00e8e93          	addi	t3,t3,-256 # 8f00 <begin_signature+0x6ac0>
    2234:	01100e13          	li	t2,17
    2238:	1fd19463          	bne	s1,t3,2420 <fail>

0000223c <test_18>:
    223c:	00000213          	li	s2,0
    2240:	00e000b7          	lui	ra,0xe00
    2244:	00000013          	nop
    2248:	00b00137          	lui	s0,0xb00
    224c:	00000013          	nop
    2250:	0220a1b3          	mulhsu	s1,ra,s0
    2254:	00120213          	addi	s2,s2,1
    2258:	00200293          	li	s3,2
    225c:	fe5212e3          	bne	s2,s3,2240 <test_18+0x4>
    2260:	0000aeb7          	lui	t3,0xa
    2264:	a00e8e93          	addi	t3,t3,-1536 # 9a00 <begin_signature+0x75c0>
    2268:	01200e13          	li	t2,18
    226c:	1bd19a63          	bne	s1,t3,2420 <fail>

00002270 <test_19>:
    2270:	00000213          	li	s2,0
    2274:	00f000b7          	lui	ra,0xf00
    2278:	00000013          	nop
    227c:	00000013          	nop
    2280:	00b00137          	lui	s0,0xb00
    2284:	0220a1b3          	mulhsu	s1,ra,s0
    2288:	00120213          	addi	s2,s2,1
    228c:	00200293          	li	s3,2
    2290:	fe5212e3          	bne	s2,s3,2274 <test_19+0x4>
    2294:	0000aeb7          	lui	t3,0xa
    2298:	500e8e93          	addi	t3,t3,1280 # a500 <begin_signature+0x80c0>
    229c:	01300e13          	li	t2,19
    22a0:	19d19063          	bne	s1,t3,2420 <fail>

000022a4 <test_20>:
    22a4:	00000213          	li	s2,0
    22a8:	00b00137          	lui	s0,0xb00
    22ac:	00d000b7          	lui	ra,0xd00
    22b0:	0220a1b3          	mulhsu	s1,ra,s0
    22b4:	00120213          	addi	s2,s2,1
    22b8:	00200293          	li	s3,2
    22bc:	fe5216e3          	bne	s2,s3,22a8 <test_20+0x4>
    22c0:	00009eb7          	lui	t3,0x9
    22c4:	f00e8e93          	addi	t3,t3,-256 # 8f00 <begin_signature+0x6ac0>
    22c8:	01400e13          	li	t2,20
    22cc:	15d19a63          	bne	s1,t3,2420 <fail>

000022d0 <test_21>:
    22d0:	00000213          	li	s2,0
    22d4:	00b00137          	lui	s0,0xb00
    22d8:	00e000b7          	lui	ra,0xe00
    22dc:	00000013          	nop
    22e0:	0220a1b3          	mulhsu	s1,ra,s0
    22e4:	00120213          	addi	s2,s2,1
    22e8:	00200293          	li	s3,2
    22ec:	fe5214e3          	bne	s2,s3,22d4 <test_21+0x4>
    22f0:	0000aeb7          	lui	t3,0xa
    22f4:	a00e8e93          	addi	t3,t3,-1536 # 9a00 <begin_signature+0x75c0>
    22f8:	01500e13          	li	t2,21
    22fc:	13d19263          	bne	s1,t3,2420 <fail>

00002300 <test_22>:
    2300:	00000213          	li	s2,0
    2304:	00b00137          	lui	s0,0xb00
    2308:	00f000b7          	lui	ra,0xf00
    230c:	00000013          	nop
    2310:	00000013          	nop
    2314:	0220a1b3          	mulhsu	s1,ra,s0
    2318:	00120213          	addi	s2,s2,1
    231c:	00200293          	li	s3,2
    2320:	fe5212e3          	bne	s2,s3,2304 <test_22+0x4>
    2324:	0000aeb7          	lui	t3,0xa
    2328:	500e8e93          	addi	t3,t3,1280 # a500 <begin_signature+0x80c0>
    232c:	01600e13          	li	t2,22
    2330:	0fd19863          	bne	s1,t3,2420 <fail>

00002334 <test_23>:
    2334:	00000213          	li	s2,0
    2338:	00b00137          	lui	s0,0xb00
    233c:	00000013          	nop
    2340:	00d000b7          	lui	ra,0xd00
    2344:	0220a1b3          	mulhsu	s1,ra,s0
    2348:	00120213          	addi	s2,s2,1
    234c:	00200293          	li	s3,2
    2350:	fe5214e3          	bne	s2,s3,2338 <test_23+0x4>
    2354:	00009eb7          	lui	t3,0x9
    2358:	f00e8e93          	addi	t3,t3,-256 # 8f00 <begin_signature+0x6ac0>
    235c:	01700e13          	li	t2,23
    2360:	0dd19063          	bne	s1,t3,2420 <fail>

00002364 <test_24>:
    2364:	00000213          	li	s2,0
    2368:	00b00137          	lui	s0,0xb00
    236c:	00000013          	nop
    2370:	00e000b7          	lui	ra,0xe00
    2374:	00000013          	nop
    2378:	0220a1b3          	mulhsu	s1,ra,s0
    237c:	00120213          	addi	s2,s2,1
    2380:	00200293          	li	s3,2
    2384:	fe5212e3          	bne	s2,s3,2368 <test_24+0x4>
    2388:	0000aeb7          	lui	t3,0xa
    238c:	a00e8e93          	addi	t3,t3,-1536 # 9a00 <begin_signature+0x75c0>
    2390:	01800e13          	li	t2,24
    2394:	09d19663          	bne	s1,t3,2420 <fail>

00002398 <test_25>:
    2398:	00000213          	li	s2,0
    239c:	00b00137          	lui	s0,0xb00
    23a0:	00000013          	nop
    23a4:	00000013          	nop
    23a8:	00f000b7          	lui	ra,0xf00
    23ac:	0220a1b3          	mulhsu	s1,ra,s0
    23b0:	00120213          	addi	s2,s2,1
    23b4:	00200293          	li	s3,2
    23b8:	fe5212e3          	bne	s2,s3,239c <test_25+0x4>
    23bc:	0000aeb7          	lui	t3,0xa
    23c0:	500e8e93          	addi	t3,t3,1280 # a500 <begin_signature+0x80c0>
    23c4:	01900e13          	li	t2,25
    23c8:	05d19c63          	bne	s1,t3,2420 <fail>

000023cc <test_26>:
    23cc:	7c0000b7          	lui	ra,0x7c000
    23d0:	02102133          	mulhsu	s0,zero,ra
    23d4:	00000e93          	li	t3,0
    23d8:	01a00e13          	li	t2,26
    23dc:	05d11263          	bne	s0,t3,2420 <fail>

000023e0 <test_27>:
    23e0:	800000b7          	lui	ra,0x80000
    23e4:	0200a133          	mulhsu	s0,ra,zero
    23e8:	00000e93          	li	t3,0
    23ec:	01b00e13          	li	t2,27
    23f0:	03d11863          	bne	s0,t3,2420 <fail>

000023f4 <test_28>:
    23f4:	020020b3          	mulhsu	ra,zero,zero
    23f8:	00000e93          	li	t3,0
    23fc:	01c00e13          	li	t2,28
    2400:	03d09063          	bne	ra,t3,2420 <fail>

00002404 <test_29>:
    2404:	021000b7          	lui	ra,0x2100
    2408:	02200137          	lui	s0,0x2200
    240c:	0220a033          	mulhsu	zero,ra,s0
    2410:	00000e93          	li	t3,0
    2414:	01d00e13          	li	t2,29
    2418:	01d01463          	bne	zero,t3,2420 <fail>
    241c:	01c01c63          	bne	zero,t2,2434 <pass>

00002420 <fail>:
    2420:	000e0863          	beqz	t2,2430 <fail+0x10>
    2424:	001e1e13          	slli	t2,t2,0x1
    2428:	001e6e13          	ori	t2,t2,1
    242c:	51ee1073          	csrw	tohost,t2
    2430:	00000063          	b	2430 <fail+0x10>

00002434 <pass>:
    2434:	51e0d073          	csrwi	tohost,1
    2438:	00000063          	b	2438 <pass+0x4>
    243c:	00000013          	nop
