
rv32ui-p-add:     file format elf32-littleriscv


Disassembly of section .text:

00002000 <_start>:
    2000:	00000093          	li	ra,0
    2004:	00000113          	li	s0,0
    2008:	002081b3          	add	s1,ra,s0
    200c:	00000e93          	li	t3,0
    2010:	00200e13          	li	t2,2
    2014:	4dd19663          	bne	s1,t3,24e0 <fail>

00002018 <test_3>:
    2018:	00100093          	li	ra,1
    201c:	00100113          	li	s0,1
    2020:	002081b3          	add	s1,ra,s0
    2024:	00200e93          	li	t3,2
    2028:	00300e13          	li	t2,3
    202c:	4bd19a63          	bne	s1,t3,24e0 <fail>

00002030 <test_4>:
    2030:	00300093          	li	ra,3
    2034:	00700113          	li	s0,7
    2038:	002081b3          	add	s1,ra,s0
    203c:	00a00e93          	li	t3,10
    2040:	00400e13          	li	t2,4
    2044:	49d19e63          	bne	s1,t3,24e0 <fail>

00002048 <test_5>:
    2048:	00000093          	li	ra,0
    204c:	ffff8137          	lui	s0,0xffff8
    2050:	002081b3          	add	s1,ra,s0
    2054:	ffff8eb7          	lui	t3,0xffff8
    2058:	00500e13          	li	t2,5
    205c:	49d19263          	bne	s1,t3,24e0 <fail>

00002060 <test_6>:
    2060:	800000b7          	lui	ra,0x80000
    2064:	00000113          	li	s0,0
    2068:	002081b3          	add	s1,ra,s0
    206c:	80000eb7          	lui	t3,0x80000
    2070:	00600e13          	li	t2,6
    2074:	47d19663          	bne	s1,t3,24e0 <fail>

00002078 <test_7>:
    2078:	800000b7          	lui	ra,0x80000
    207c:	ffff8137          	lui	s0,0xffff8
    2080:	002081b3          	add	s1,ra,s0
    2084:	7fff8eb7          	lui	t3,0x7fff8
    2088:	00700e13          	li	t2,7
    208c:	45d19a63          	bne	s1,t3,24e0 <fail>

00002090 <test_8>:
    2090:	00000093          	li	ra,0
    2094:	00008137          	lui	s0,0x8
    2098:	fff10113          	addi	s0,s0,-1 # 7fff <begin_signature+0x5aff>
    209c:	002081b3          	add	s1,ra,s0
    20a0:	00008eb7          	lui	t3,0x8
    20a4:	fffe8e93          	addi	t3,t3,-1 # 7fff <begin_signature+0x5aff>
    20a8:	00800e13          	li	t2,8
    20ac:	43d19a63          	bne	s1,t3,24e0 <fail>

000020b0 <test_9>:
    20b0:	800000b7          	lui	ra,0x80000
    20b4:	fff08093          	addi	ra,ra,-1 # 7fffffff <begin_signature+0x7fffdaff>
    20b8:	00000113          	li	s0,0
    20bc:	002081b3          	add	s1,ra,s0
    20c0:	80000eb7          	lui	t3,0x80000
    20c4:	fffe8e93          	addi	t3,t3,-1 # 7fffffff <begin_signature+0x7fffdaff>
    20c8:	00900e13          	li	t2,9
    20cc:	41d19a63          	bne	s1,t3,24e0 <fail>

000020d0 <test_10>:
    20d0:	800000b7          	lui	ra,0x80000
    20d4:	fff08093          	addi	ra,ra,-1 # 7fffffff <begin_signature+0x7fffdaff>
    20d8:	00008137          	lui	s0,0x8
    20dc:	fff10113          	addi	s0,s0,-1 # 7fff <begin_signature+0x5aff>
    20e0:	002081b3          	add	s1,ra,s0
    20e4:	80008eb7          	lui	t3,0x80008
    20e8:	ffee8e93          	addi	t3,t3,-2 # 80007ffe <begin_signature+0x80005afe>
    20ec:	00a00e13          	li	t2,10
    20f0:	3fd19863          	bne	s1,t3,24e0 <fail>

000020f4 <test_11>:
    20f4:	800000b7          	lui	ra,0x80000
    20f8:	00008137          	lui	s0,0x8
    20fc:	fff10113          	addi	s0,s0,-1 # 7fff <begin_signature+0x5aff>
    2100:	002081b3          	add	s1,ra,s0
    2104:	80008eb7          	lui	t3,0x80008
    2108:	fffe8e93          	addi	t3,t3,-1 # 80007fff <begin_signature+0x80005aff>
    210c:	00b00e13          	li	t2,11
    2110:	3dd19863          	bne	s1,t3,24e0 <fail>

00002114 <test_12>:
    2114:	800000b7          	lui	ra,0x80000
    2118:	fff08093          	addi	ra,ra,-1 # 7fffffff <begin_signature+0x7fffdaff>
    211c:	ffff8137          	lui	s0,0xffff8
    2120:	002081b3          	add	s1,ra,s0
    2124:	7fff8eb7          	lui	t3,0x7fff8
    2128:	fffe8e93          	addi	t3,t3,-1 # 7fff7fff <begin_signature+0x7fff5aff>
    212c:	00c00e13          	li	t2,12
    2130:	3bd19863          	bne	s1,t3,24e0 <fail>

00002134 <test_13>:
    2134:	00000093          	li	ra,0
    2138:	fff00113          	li	s0,-1
    213c:	002081b3          	add	s1,ra,s0
    2140:	fff00e93          	li	t3,-1
    2144:	00d00e13          	li	t2,13
    2148:	39d19c63          	bne	s1,t3,24e0 <fail>

0000214c <test_14>:
    214c:	fff00093          	li	ra,-1
    2150:	00100113          	li	s0,1
    2154:	002081b3          	add	s1,ra,s0
    2158:	00000e93          	li	t3,0
    215c:	00e00e13          	li	t2,14
    2160:	39d19063          	bne	s1,t3,24e0 <fail>

00002164 <test_15>:
    2164:	fff00093          	li	ra,-1
    2168:	fff00113          	li	s0,-1
    216c:	002081b3          	add	s1,ra,s0
    2170:	ffe00e93          	li	t3,-2
    2174:	00f00e13          	li	t2,15
    2178:	37d19463          	bne	s1,t3,24e0 <fail>

0000217c <test_16>:
    217c:	00100093          	li	ra,1
    2180:	80000137          	lui	s0,0x80000
    2184:	fff10113          	addi	s0,s0,-1 # 7fffffff <begin_signature+0x7fffdaff>
    2188:	002081b3          	add	s1,ra,s0
    218c:	80000eb7          	lui	t3,0x80000
    2190:	01000e13          	li	t2,16
    2194:	35d19663          	bne	s1,t3,24e0 <fail>

00002198 <test_17>:
    2198:	00d00093          	li	ra,13
    219c:	00b00113          	li	s0,11
    21a0:	002080b3          	add	ra,ra,s0
    21a4:	01800e93          	li	t3,24
    21a8:	01100e13          	li	t2,17
    21ac:	33d09a63          	bne	ra,t3,24e0 <fail>

000021b0 <test_18>:
    21b0:	00e00093          	li	ra,14
    21b4:	00b00113          	li	s0,11
    21b8:	00208133          	add	s0,ra,s0
    21bc:	01900e93          	li	t3,25
    21c0:	01200e13          	li	t2,18
    21c4:	31d11e63          	bne	s0,t3,24e0 <fail>

000021c8 <test_19>:
    21c8:	00d00093          	li	ra,13
    21cc:	001080b3          	add	ra,ra,ra
    21d0:	01a00e93          	li	t3,26
    21d4:	01300e13          	li	t2,19
    21d8:	31d09463          	bne	ra,t3,24e0 <fail>

000021dc <test_20>:
    21dc:	00000213          	li	s2,0
    21e0:	00d00093          	li	ra,13
    21e4:	00b00113          	li	s0,11
    21e8:	002081b3          	add	s1,ra,s0
    21ec:	00018313          	mv	s4,s1
    21f0:	00120213          	addi	s2,s2,1
    21f4:	00200293          	li	s3,2
    21f8:	fe5214e3          	bne	s2,s3,21e0 <test_20+0x4>
    21fc:	01800e93          	li	t3,24
    2200:	01400e13          	li	t2,20
    2204:	2dd31e63          	bne	s4,t3,24e0 <fail>

00002208 <test_21>:
    2208:	00000213          	li	s2,0
    220c:	00e00093          	li	ra,14
    2210:	00b00113          	li	s0,11
    2214:	002081b3          	add	s1,ra,s0
    2218:	00000013          	nop
    221c:	00018313          	mv	s4,s1
    2220:	00120213          	addi	s2,s2,1
    2224:	00200293          	li	s3,2
    2228:	fe5212e3          	bne	s2,s3,220c <test_21+0x4>
    222c:	01900e93          	li	t3,25
    2230:	01500e13          	li	t2,21
    2234:	2bd31663          	bne	s4,t3,24e0 <fail>

00002238 <test_22>:
    2238:	00000213          	li	s2,0
    223c:	00f00093          	li	ra,15
    2240:	00b00113          	li	s0,11
    2244:	002081b3          	add	s1,ra,s0
    2248:	00000013          	nop
    224c:	00000013          	nop
    2250:	00018313          	mv	s4,s1
    2254:	00120213          	addi	s2,s2,1
    2258:	00200293          	li	s3,2
    225c:	fe5210e3          	bne	s2,s3,223c <test_22+0x4>
    2260:	01a00e93          	li	t3,26
    2264:	01600e13          	li	t2,22
    2268:	27d31c63          	bne	s4,t3,24e0 <fail>

0000226c <test_23>:
    226c:	00000213          	li	s2,0
    2270:	00d00093          	li	ra,13
    2274:	00b00113          	li	s0,11
    2278:	002081b3          	add	s1,ra,s0
    227c:	00120213          	addi	s2,s2,1
    2280:	00200293          	li	s3,2
    2284:	fe5216e3          	bne	s2,s3,2270 <test_23+0x4>
    2288:	01800e93          	li	t3,24
    228c:	01700e13          	li	t2,23
    2290:	25d19863          	bne	s1,t3,24e0 <fail>

00002294 <test_24>:
    2294:	00000213          	li	s2,0
    2298:	00e00093          	li	ra,14
    229c:	00b00113          	li	s0,11
    22a0:	00000013          	nop
    22a4:	002081b3          	add	s1,ra,s0
    22a8:	00120213          	addi	s2,s2,1
    22ac:	00200293          	li	s3,2
    22b0:	fe5214e3          	bne	s2,s3,2298 <test_24+0x4>
    22b4:	01900e93          	li	t3,25
    22b8:	01800e13          	li	t2,24
    22bc:	23d19263          	bne	s1,t3,24e0 <fail>

000022c0 <test_25>:
    22c0:	00000213          	li	s2,0
    22c4:	00f00093          	li	ra,15
    22c8:	00b00113          	li	s0,11
    22cc:	00000013          	nop
    22d0:	00000013          	nop
    22d4:	002081b3          	add	s1,ra,s0
    22d8:	00120213          	addi	s2,s2,1
    22dc:	00200293          	li	s3,2
    22e0:	fe5212e3          	bne	s2,s3,22c4 <test_25+0x4>
    22e4:	01a00e93          	li	t3,26
    22e8:	01900e13          	li	t2,25
    22ec:	1fd19a63          	bne	s1,t3,24e0 <fail>

000022f0 <test_26>:
    22f0:	00000213          	li	s2,0
    22f4:	00d00093          	li	ra,13
    22f8:	00000013          	nop
    22fc:	00b00113          	li	s0,11
    2300:	002081b3          	add	s1,ra,s0
    2304:	00120213          	addi	s2,s2,1
    2308:	00200293          	li	s3,2
    230c:	fe5214e3          	bne	s2,s3,22f4 <test_26+0x4>
    2310:	01800e93          	li	t3,24
    2314:	01a00e13          	li	t2,26
    2318:	1dd19463          	bne	s1,t3,24e0 <fail>

0000231c <test_27>:
    231c:	00000213          	li	s2,0
    2320:	00e00093          	li	ra,14
    2324:	00000013          	nop
    2328:	00b00113          	li	s0,11
    232c:	00000013          	nop
    2330:	002081b3          	add	s1,ra,s0
    2334:	00120213          	addi	s2,s2,1
    2338:	00200293          	li	s3,2
    233c:	fe5212e3          	bne	s2,s3,2320 <test_27+0x4>
    2340:	01900e93          	li	t3,25
    2344:	01b00e13          	li	t2,27
    2348:	19d19c63          	bne	s1,t3,24e0 <fail>

0000234c <test_28>:
    234c:	00000213          	li	s2,0
    2350:	00f00093          	li	ra,15
    2354:	00000013          	nop
    2358:	00000013          	nop
    235c:	00b00113          	li	s0,11
    2360:	002081b3          	add	s1,ra,s0
    2364:	00120213          	addi	s2,s2,1
    2368:	00200293          	li	s3,2
    236c:	fe5212e3          	bne	s2,s3,2350 <test_28+0x4>
    2370:	01a00e93          	li	t3,26
    2374:	01c00e13          	li	t2,28
    2378:	17d19463          	bne	s1,t3,24e0 <fail>

0000237c <test_29>:
    237c:	00000213          	li	s2,0
    2380:	00b00113          	li	s0,11
    2384:	00d00093          	li	ra,13
    2388:	002081b3          	add	s1,ra,s0
    238c:	00120213          	addi	s2,s2,1
    2390:	00200293          	li	s3,2
    2394:	fe5216e3          	bne	s2,s3,2380 <test_29+0x4>
    2398:	01800e93          	li	t3,24
    239c:	01d00e13          	li	t2,29
    23a0:	15d19063          	bne	s1,t3,24e0 <fail>

000023a4 <test_30>:
    23a4:	00000213          	li	s2,0
    23a8:	00b00113          	li	s0,11
    23ac:	00e00093          	li	ra,14
    23b0:	00000013          	nop
    23b4:	002081b3          	add	s1,ra,s0
    23b8:	00120213          	addi	s2,s2,1
    23bc:	00200293          	li	s3,2
    23c0:	fe5214e3          	bne	s2,s3,23a8 <test_30+0x4>
    23c4:	01900e93          	li	t3,25
    23c8:	01e00e13          	li	t2,30
    23cc:	11d19a63          	bne	s1,t3,24e0 <fail>

000023d0 <test_31>:
    23d0:	00000213          	li	s2,0
    23d4:	00b00113          	li	s0,11
    23d8:	00f00093          	li	ra,15
    23dc:	00000013          	nop
    23e0:	00000013          	nop
    23e4:	002081b3          	add	s1,ra,s0
    23e8:	00120213          	addi	s2,s2,1
    23ec:	00200293          	li	s3,2
    23f0:	fe5212e3          	bne	s2,s3,23d4 <test_31+0x4>
    23f4:	01a00e93          	li	t3,26
    23f8:	01f00e13          	li	t2,31
    23fc:	0fd19263          	bne	s1,t3,24e0 <fail>

00002400 <test_32>:
    2400:	00000213          	li	s2,0
    2404:	00b00113          	li	s0,11
    2408:	00000013          	nop
    240c:	00d00093          	li	ra,13
    2410:	002081b3          	add	s1,ra,s0
    2414:	00120213          	addi	s2,s2,1
    2418:	00200293          	li	s3,2
    241c:	fe5214e3          	bne	s2,s3,2404 <test_32+0x4>
    2420:	01800e93          	li	t3,24
    2424:	02000e13          	li	t2,32
    2428:	0bd19c63          	bne	s1,t3,24e0 <fail>

0000242c <test_33>:
    242c:	00000213          	li	s2,0
    2430:	00b00113          	li	s0,11
    2434:	00000013          	nop
    2438:	00e00093          	li	ra,14
    243c:	00000013          	nop
    2440:	002081b3          	add	s1,ra,s0
    2444:	00120213          	addi	s2,s2,1
    2448:	00200293          	li	s3,2
    244c:	fe5212e3          	bne	s2,s3,2430 <test_33+0x4>
    2450:	01900e93          	li	t3,25
    2454:	02100e13          	li	t2,33
    2458:	09d19463          	bne	s1,t3,24e0 <fail>

0000245c <test_34>:
    245c:	00000213          	li	s2,0
    2460:	00b00113          	li	s0,11
    2464:	00000013          	nop
    2468:	00000013          	nop
    246c:	00f00093          	li	ra,15
    2470:	002081b3          	add	s1,ra,s0
    2474:	00120213          	addi	s2,s2,1
    2478:	00200293          	li	s3,2
    247c:	fe5212e3          	bne	s2,s3,2460 <test_34+0x4>
    2480:	01a00e93          	li	t3,26
    2484:	02200e13          	li	t2,34
    2488:	05d19c63          	bne	s1,t3,24e0 <fail>

0000248c <test_35>:
    248c:	00f00093          	li	ra,15
    2490:	00100133          	add	s0,zero,ra
    2494:	00f00e93          	li	t3,15
    2498:	02300e13          	li	t2,35
    249c:	05d11263          	bne	s0,t3,24e0 <fail>

000024a0 <test_36>:
    24a0:	02000093          	li	ra,32
    24a4:	00008133          	add	s0,ra,zero
    24a8:	02000e93          	li	t3,32
    24ac:	02400e13          	li	t2,36
    24b0:	03d11863          	bne	s0,t3,24e0 <fail>

000024b4 <test_37>:
    24b4:	000000b3          	add	ra,zero,zero
    24b8:	00000e93          	li	t3,0
    24bc:	02500e13          	li	t2,37
    24c0:	03d09063          	bne	ra,t3,24e0 <fail>

000024c4 <test_38>:
    24c4:	01000093          	li	ra,16
    24c8:	01e00113          	li	s0,30
    24cc:	00208033          	add	zero,ra,s0
    24d0:	00000e93          	li	t3,0
    24d4:	02600e13          	li	t2,38
    24d8:	01d01463          	bne	zero,t3,24e0 <fail>
    24dc:	01c01c63          	bne	zero,t2,24f4 <pass>

000024e0 <fail>:
    24e0:	000e0863          	beqz	t2,24f0 <fail+0x10>
    24e4:	001e1e13          	slli	t2,t2,0x1
    24e8:	001e6e13          	ori	t2,t2,1
    24ec:	51ee1073          	csrw	tohost,t2
    24f0:	00000063          	b	24f0 <fail+0x10>

000024f4 <pass>:
    24f4:	51e0d073          	csrwi	tohost,1
    24f8:	00000063          	b	24f8 <pass+0x4>
    24fc:	00000013          	nop
