
rv32ui-p-slt:     file format elf32-littleriscv


Disassembly of section .text:

00002000 <_start>:
    2000:	00000093          	li	ra,0
    2004:	00000113          	li	s0,0
    2008:	0020a1b3          	slt	s1,ra,s0
    200c:	00000e93          	li	t3,0
    2010:	00200e13          	li	t2,2
    2014:	4bd19a63          	bne	s1,t3,24c8 <fail>

00002018 <test_3>:
    2018:	00100093          	li	ra,1
    201c:	00100113          	li	s0,1
    2020:	0020a1b3          	slt	s1,ra,s0
    2024:	00000e93          	li	t3,0
    2028:	00300e13          	li	t2,3
    202c:	49d19e63          	bne	s1,t3,24c8 <fail>

00002030 <test_4>:
    2030:	00300093          	li	ra,3
    2034:	00700113          	li	s0,7
    2038:	0020a1b3          	slt	s1,ra,s0
    203c:	00100e93          	li	t3,1
    2040:	00400e13          	li	t2,4
    2044:	49d19263          	bne	s1,t3,24c8 <fail>

00002048 <test_5>:
    2048:	00700093          	li	ra,7
    204c:	00300113          	li	s0,3
    2050:	0020a1b3          	slt	s1,ra,s0
    2054:	00000e93          	li	t3,0
    2058:	00500e13          	li	t2,5
    205c:	47d19663          	bne	s1,t3,24c8 <fail>

00002060 <test_6>:
    2060:	00000093          	li	ra,0
    2064:	ffff8137          	lui	s0,0xffff8
    2068:	0020a1b3          	slt	s1,ra,s0
    206c:	00000e93          	li	t3,0
    2070:	00600e13          	li	t2,6
    2074:	45d19a63          	bne	s1,t3,24c8 <fail>

00002078 <test_7>:
    2078:	800000b7          	lui	ra,0x80000
    207c:	00000113          	li	s0,0
    2080:	0020a1b3          	slt	s1,ra,s0
    2084:	00100e93          	li	t3,1
    2088:	00700e13          	li	t2,7
    208c:	43d19e63          	bne	s1,t3,24c8 <fail>

00002090 <test_8>:
    2090:	800000b7          	lui	ra,0x80000
    2094:	ffff8137          	lui	s0,0xffff8
    2098:	0020a1b3          	slt	s1,ra,s0
    209c:	00100e93          	li	t3,1
    20a0:	00800e13          	li	t2,8
    20a4:	43d19263          	bne	s1,t3,24c8 <fail>

000020a8 <test_9>:
    20a8:	00000093          	li	ra,0
    20ac:	00008137          	lui	s0,0x8
    20b0:	fff10113          	addi	s0,s0,-1 # 7fff <begin_signature+0x5b0f>
    20b4:	0020a1b3          	slt	s1,ra,s0
    20b8:	00100e93          	li	t3,1
    20bc:	00900e13          	li	t2,9
    20c0:	41d19463          	bne	s1,t3,24c8 <fail>

000020c4 <test_10>:
    20c4:	800000b7          	lui	ra,0x80000
    20c8:	fff08093          	addi	ra,ra,-1 # 7fffffff <begin_signature+0x7fffdb0f>
    20cc:	00000113          	li	s0,0
    20d0:	0020a1b3          	slt	s1,ra,s0
    20d4:	00000e93          	li	t3,0
    20d8:	00a00e13          	li	t2,10
    20dc:	3fd19663          	bne	s1,t3,24c8 <fail>

000020e0 <test_11>:
    20e0:	800000b7          	lui	ra,0x80000
    20e4:	fff08093          	addi	ra,ra,-1 # 7fffffff <begin_signature+0x7fffdb0f>
    20e8:	00008137          	lui	s0,0x8
    20ec:	fff10113          	addi	s0,s0,-1 # 7fff <begin_signature+0x5b0f>
    20f0:	0020a1b3          	slt	s1,ra,s0
    20f4:	00000e93          	li	t3,0
    20f8:	00b00e13          	li	t2,11
    20fc:	3dd19663          	bne	s1,t3,24c8 <fail>

00002100 <test_12>:
    2100:	800000b7          	lui	ra,0x80000
    2104:	00008137          	lui	s0,0x8
    2108:	fff10113          	addi	s0,s0,-1 # 7fff <begin_signature+0x5b0f>
    210c:	0020a1b3          	slt	s1,ra,s0
    2110:	00100e93          	li	t3,1
    2114:	00c00e13          	li	t2,12
    2118:	3bd19863          	bne	s1,t3,24c8 <fail>

0000211c <test_13>:
    211c:	800000b7          	lui	ra,0x80000
    2120:	fff08093          	addi	ra,ra,-1 # 7fffffff <begin_signature+0x7fffdb0f>
    2124:	ffff8137          	lui	s0,0xffff8
    2128:	0020a1b3          	slt	s1,ra,s0
    212c:	00000e93          	li	t3,0
    2130:	00d00e13          	li	t2,13
    2134:	39d19a63          	bne	s1,t3,24c8 <fail>

00002138 <test_14>:
    2138:	00000093          	li	ra,0
    213c:	fff00113          	li	s0,-1
    2140:	0020a1b3          	slt	s1,ra,s0
    2144:	00000e93          	li	t3,0
    2148:	00e00e13          	li	t2,14
    214c:	37d19e63          	bne	s1,t3,24c8 <fail>

00002150 <test_15>:
    2150:	fff00093          	li	ra,-1
    2154:	00100113          	li	s0,1
    2158:	0020a1b3          	slt	s1,ra,s0
    215c:	00100e93          	li	t3,1
    2160:	00f00e13          	li	t2,15
    2164:	37d19263          	bne	s1,t3,24c8 <fail>

00002168 <test_16>:
    2168:	fff00093          	li	ra,-1
    216c:	fff00113          	li	s0,-1
    2170:	0020a1b3          	slt	s1,ra,s0
    2174:	00000e93          	li	t3,0
    2178:	01000e13          	li	t2,16
    217c:	35d19663          	bne	s1,t3,24c8 <fail>

00002180 <test_17>:
    2180:	00e00093          	li	ra,14
    2184:	00d00113          	li	s0,13
    2188:	0020a0b3          	slt	ra,ra,s0
    218c:	00000e93          	li	t3,0
    2190:	01100e13          	li	t2,17
    2194:	33d09a63          	bne	ra,t3,24c8 <fail>

00002198 <test_18>:
    2198:	00b00093          	li	ra,11
    219c:	00d00113          	li	s0,13
    21a0:	0020a133          	slt	s0,ra,s0
    21a4:	00100e93          	li	t3,1
    21a8:	01200e13          	li	t2,18
    21ac:	31d11e63          	bne	s0,t3,24c8 <fail>

000021b0 <test_19>:
    21b0:	00d00093          	li	ra,13
    21b4:	0010a0b3          	slt	ra,ra,ra
    21b8:	00000e93          	li	t3,0
    21bc:	01300e13          	li	t2,19
    21c0:	31d09463          	bne	ra,t3,24c8 <fail>

000021c4 <test_20>:
    21c4:	00000213          	li	s2,0
    21c8:	00b00093          	li	ra,11
    21cc:	00d00113          	li	s0,13
    21d0:	0020a1b3          	slt	s1,ra,s0
    21d4:	00018313          	mv	s4,s1
    21d8:	00120213          	addi	s2,s2,1
    21dc:	00200293          	li	s3,2
    21e0:	fe5214e3          	bne	s2,s3,21c8 <test_20+0x4>
    21e4:	00100e93          	li	t3,1
    21e8:	01400e13          	li	t2,20
    21ec:	2dd31e63          	bne	s4,t3,24c8 <fail>

000021f0 <test_21>:
    21f0:	00000213          	li	s2,0
    21f4:	00e00093          	li	ra,14
    21f8:	00d00113          	li	s0,13
    21fc:	0020a1b3          	slt	s1,ra,s0
    2200:	00000013          	nop
    2204:	00018313          	mv	s4,s1
    2208:	00120213          	addi	s2,s2,1
    220c:	00200293          	li	s3,2
    2210:	fe5212e3          	bne	s2,s3,21f4 <test_21+0x4>
    2214:	00000e93          	li	t3,0
    2218:	01500e13          	li	t2,21
    221c:	2bd31663          	bne	s4,t3,24c8 <fail>

00002220 <test_22>:
    2220:	00000213          	li	s2,0
    2224:	00c00093          	li	ra,12
    2228:	00d00113          	li	s0,13
    222c:	0020a1b3          	slt	s1,ra,s0
    2230:	00000013          	nop
    2234:	00000013          	nop
    2238:	00018313          	mv	s4,s1
    223c:	00120213          	addi	s2,s2,1
    2240:	00200293          	li	s3,2
    2244:	fe5210e3          	bne	s2,s3,2224 <test_22+0x4>
    2248:	00100e93          	li	t3,1
    224c:	01600e13          	li	t2,22
    2250:	27d31c63          	bne	s4,t3,24c8 <fail>

00002254 <test_23>:
    2254:	00000213          	li	s2,0
    2258:	00e00093          	li	ra,14
    225c:	00d00113          	li	s0,13
    2260:	0020a1b3          	slt	s1,ra,s0
    2264:	00120213          	addi	s2,s2,1
    2268:	00200293          	li	s3,2
    226c:	fe5216e3          	bne	s2,s3,2258 <test_23+0x4>
    2270:	00000e93          	li	t3,0
    2274:	01700e13          	li	t2,23
    2278:	25d19863          	bne	s1,t3,24c8 <fail>

0000227c <test_24>:
    227c:	00000213          	li	s2,0
    2280:	00b00093          	li	ra,11
    2284:	00d00113          	li	s0,13
    2288:	00000013          	nop
    228c:	0020a1b3          	slt	s1,ra,s0
    2290:	00120213          	addi	s2,s2,1
    2294:	00200293          	li	s3,2
    2298:	fe5214e3          	bne	s2,s3,2280 <test_24+0x4>
    229c:	00100e93          	li	t3,1
    22a0:	01800e13          	li	t2,24
    22a4:	23d19263          	bne	s1,t3,24c8 <fail>

000022a8 <test_25>:
    22a8:	00000213          	li	s2,0
    22ac:	00f00093          	li	ra,15
    22b0:	00d00113          	li	s0,13
    22b4:	00000013          	nop
    22b8:	00000013          	nop
    22bc:	0020a1b3          	slt	s1,ra,s0
    22c0:	00120213          	addi	s2,s2,1
    22c4:	00200293          	li	s3,2
    22c8:	fe5212e3          	bne	s2,s3,22ac <test_25+0x4>
    22cc:	00000e93          	li	t3,0
    22d0:	01900e13          	li	t2,25
    22d4:	1fd19a63          	bne	s1,t3,24c8 <fail>

000022d8 <test_26>:
    22d8:	00000213          	li	s2,0
    22dc:	00a00093          	li	ra,10
    22e0:	00000013          	nop
    22e4:	00d00113          	li	s0,13
    22e8:	0020a1b3          	slt	s1,ra,s0
    22ec:	00120213          	addi	s2,s2,1
    22f0:	00200293          	li	s3,2
    22f4:	fe5214e3          	bne	s2,s3,22dc <test_26+0x4>
    22f8:	00100e93          	li	t3,1
    22fc:	01a00e13          	li	t2,26
    2300:	1dd19463          	bne	s1,t3,24c8 <fail>

00002304 <test_27>:
    2304:	00000213          	li	s2,0
    2308:	01000093          	li	ra,16
    230c:	00000013          	nop
    2310:	00d00113          	li	s0,13
    2314:	00000013          	nop
    2318:	0020a1b3          	slt	s1,ra,s0
    231c:	00120213          	addi	s2,s2,1
    2320:	00200293          	li	s3,2
    2324:	fe5212e3          	bne	s2,s3,2308 <test_27+0x4>
    2328:	00000e93          	li	t3,0
    232c:	01b00e13          	li	t2,27
    2330:	19d19c63          	bne	s1,t3,24c8 <fail>

00002334 <test_28>:
    2334:	00000213          	li	s2,0
    2338:	00900093          	li	ra,9
    233c:	00000013          	nop
    2340:	00000013          	nop
    2344:	00d00113          	li	s0,13
    2348:	0020a1b3          	slt	s1,ra,s0
    234c:	00120213          	addi	s2,s2,1
    2350:	00200293          	li	s3,2
    2354:	fe5212e3          	bne	s2,s3,2338 <test_28+0x4>
    2358:	00100e93          	li	t3,1
    235c:	01c00e13          	li	t2,28
    2360:	17d19463          	bne	s1,t3,24c8 <fail>

00002364 <test_29>:
    2364:	00000213          	li	s2,0
    2368:	00d00113          	li	s0,13
    236c:	01100093          	li	ra,17
    2370:	0020a1b3          	slt	s1,ra,s0
    2374:	00120213          	addi	s2,s2,1
    2378:	00200293          	li	s3,2
    237c:	fe5216e3          	bne	s2,s3,2368 <test_29+0x4>
    2380:	00000e93          	li	t3,0
    2384:	01d00e13          	li	t2,29
    2388:	15d19063          	bne	s1,t3,24c8 <fail>

0000238c <test_30>:
    238c:	00000213          	li	s2,0
    2390:	00d00113          	li	s0,13
    2394:	00800093          	li	ra,8
    2398:	00000013          	nop
    239c:	0020a1b3          	slt	s1,ra,s0
    23a0:	00120213          	addi	s2,s2,1
    23a4:	00200293          	li	s3,2
    23a8:	fe5214e3          	bne	s2,s3,2390 <test_30+0x4>
    23ac:	00100e93          	li	t3,1
    23b0:	01e00e13          	li	t2,30
    23b4:	11d19a63          	bne	s1,t3,24c8 <fail>

000023b8 <test_31>:
    23b8:	00000213          	li	s2,0
    23bc:	00d00113          	li	s0,13
    23c0:	01200093          	li	ra,18
    23c4:	00000013          	nop
    23c8:	00000013          	nop
    23cc:	0020a1b3          	slt	s1,ra,s0
    23d0:	00120213          	addi	s2,s2,1
    23d4:	00200293          	li	s3,2
    23d8:	fe5212e3          	bne	s2,s3,23bc <test_31+0x4>
    23dc:	00000e93          	li	t3,0
    23e0:	01f00e13          	li	t2,31
    23e4:	0fd19263          	bne	s1,t3,24c8 <fail>

000023e8 <test_32>:
    23e8:	00000213          	li	s2,0
    23ec:	00d00113          	li	s0,13
    23f0:	00000013          	nop
    23f4:	00700093          	li	ra,7
    23f8:	0020a1b3          	slt	s1,ra,s0
    23fc:	00120213          	addi	s2,s2,1
    2400:	00200293          	li	s3,2
    2404:	fe5214e3          	bne	s2,s3,23ec <test_32+0x4>
    2408:	00100e93          	li	t3,1
    240c:	02000e13          	li	t2,32
    2410:	0bd19c63          	bne	s1,t3,24c8 <fail>

00002414 <test_33>:
    2414:	00000213          	li	s2,0
    2418:	00d00113          	li	s0,13
    241c:	00000013          	nop
    2420:	01300093          	li	ra,19
    2424:	00000013          	nop
    2428:	0020a1b3          	slt	s1,ra,s0
    242c:	00120213          	addi	s2,s2,1
    2430:	00200293          	li	s3,2
    2434:	fe5212e3          	bne	s2,s3,2418 <test_33+0x4>
    2438:	00000e93          	li	t3,0
    243c:	02100e13          	li	t2,33
    2440:	09d19463          	bne	s1,t3,24c8 <fail>

00002444 <test_34>:
    2444:	00000213          	li	s2,0
    2448:	00d00113          	li	s0,13
    244c:	00000013          	nop
    2450:	00000013          	nop
    2454:	00600093          	li	ra,6
    2458:	0020a1b3          	slt	s1,ra,s0
    245c:	00120213          	addi	s2,s2,1
    2460:	00200293          	li	s3,2
    2464:	fe5212e3          	bne	s2,s3,2448 <test_34+0x4>
    2468:	00100e93          	li	t3,1
    246c:	02200e13          	li	t2,34
    2470:	05d19c63          	bne	s1,t3,24c8 <fail>

00002474 <test_35>:
    2474:	fff00093          	li	ra,-1
    2478:	00102133          	sgtz	s0,ra
    247c:	00000e93          	li	t3,0
    2480:	02300e13          	li	t2,35
    2484:	05d11263          	bne	s0,t3,24c8 <fail>

00002488 <test_36>:
    2488:	fff00093          	li	ra,-1
    248c:	0000a133          	sltz	s0,ra
    2490:	00100e93          	li	t3,1
    2494:	02400e13          	li	t2,36
    2498:	03d11863          	bne	s0,t3,24c8 <fail>

0000249c <test_37>:
    249c:	000020b3          	sltz	ra,zero
    24a0:	00000e93          	li	t3,0
    24a4:	02500e13          	li	t2,37
    24a8:	03d09063          	bne	ra,t3,24c8 <fail>

000024ac <test_38>:
    24ac:	01000093          	li	ra,16
    24b0:	01e00113          	li	s0,30
    24b4:	0020a033          	slt	zero,ra,s0
    24b8:	00000e93          	li	t3,0
    24bc:	02600e13          	li	t2,38
    24c0:	01d01463          	bne	zero,t3,24c8 <fail>
    24c4:	01c01c63          	bne	zero,t2,24dc <pass>

000024c8 <fail>:
    24c8:	000e0863          	beqz	t2,24d8 <fail+0x10>
    24cc:	001e1e13          	slli	t2,t2,0x1
    24d0:	001e6e13          	ori	t2,t2,1
    24d4:	51ee1073          	csrw	tohost,t2
    24d8:	00000063          	b	24d8 <fail+0x10>

000024dc <pass>:
    24dc:	51e0d073          	csrwi	tohost,1
    24e0:	00000063          	b	24e0 <pass+0x4>
    24e4:	00000013          	nop
    24e8:	00000013          	nop
    24ec:	00000013          	nop
