
rv32ui-p-bltu:     file format elf32-littleriscv


Disassembly of section .text:

00002000 <_start>:
    2000:	00200e13          	li	t2,2
    2004:	00000093          	li	ra,0
    2008:	00100113          	li	s0,1
    200c:	0020e663          	bltu	ra,s0,2018 <_start+0x18>
    2010:	2fc01263          	bne	zero,t2,22f4 <fail>
    2014:	01c01663          	bne	zero,t2,2020 <test_3>
    2018:	fe20eee3          	bltu	ra,s0,2014 <_start+0x14>
    201c:	2dc01c63          	bne	zero,t2,22f4 <fail>

00002020 <test_3>:
    2020:	00300e13          	li	t2,3
    2024:	ffe00093          	li	ra,-2
    2028:	fff00113          	li	s0,-1
    202c:	0020e663          	bltu	ra,s0,2038 <test_3+0x18>
    2030:	2dc01263          	bne	zero,t2,22f4 <fail>
    2034:	01c01663          	bne	zero,t2,2040 <test_4>
    2038:	fe20eee3          	bltu	ra,s0,2034 <test_3+0x14>
    203c:	2bc01c63          	bne	zero,t2,22f4 <fail>

00002040 <test_4>:
    2040:	00400e13          	li	t2,4
    2044:	00000093          	li	ra,0
    2048:	fff00113          	li	s0,-1
    204c:	0020e663          	bltu	ra,s0,2058 <test_4+0x18>
    2050:	2bc01263          	bne	zero,t2,22f4 <fail>
    2054:	01c01663          	bne	zero,t2,2060 <test_5>
    2058:	fe20eee3          	bltu	ra,s0,2054 <test_4+0x14>
    205c:	29c01c63          	bne	zero,t2,22f4 <fail>

00002060 <test_5>:
    2060:	00500e13          	li	t2,5
    2064:	00100093          	li	ra,1
    2068:	00000113          	li	s0,0
    206c:	0020e463          	bltu	ra,s0,2074 <test_5+0x14>
    2070:	01c01463          	bne	zero,t2,2078 <test_5+0x18>
    2074:	29c01063          	bne	zero,t2,22f4 <fail>
    2078:	fe20eee3          	bltu	ra,s0,2074 <test_5+0x14>

0000207c <test_6>:
    207c:	00600e13          	li	t2,6
    2080:	fff00093          	li	ra,-1
    2084:	ffe00113          	li	s0,-2
    2088:	0020e463          	bltu	ra,s0,2090 <test_6+0x14>
    208c:	01c01463          	bne	zero,t2,2094 <test_6+0x18>
    2090:	27c01263          	bne	zero,t2,22f4 <fail>
    2094:	fe20eee3          	bltu	ra,s0,2090 <test_6+0x14>

00002098 <test_7>:
    2098:	00700e13          	li	t2,7
    209c:	fff00093          	li	ra,-1
    20a0:	00000113          	li	s0,0
    20a4:	0020e463          	bltu	ra,s0,20ac <test_7+0x14>
    20a8:	01c01463          	bne	zero,t2,20b0 <test_7+0x18>
    20ac:	25c01463          	bne	zero,t2,22f4 <fail>
    20b0:	fe20eee3          	bltu	ra,s0,20ac <test_7+0x14>

000020b4 <test_8>:
    20b4:	00800e13          	li	t2,8
    20b8:	800000b7          	lui	ra,0x80000
    20bc:	80000137          	lui	s0,0x80000
    20c0:	fff10113          	addi	s0,s0,-1 # 7fffffff <begin_signature+0x7fffdcef>
    20c4:	0020e463          	bltu	ra,s0,20cc <test_8+0x18>
    20c8:	01c01463          	bne	zero,t2,20d0 <test_8+0x1c>
    20cc:	23c01463          	bne	zero,t2,22f4 <fail>
    20d0:	fe20eee3          	bltu	ra,s0,20cc <test_8+0x18>

000020d4 <test_9>:
    20d4:	00900e13          	li	t2,9
    20d8:	00000213          	li	s2,0
    20dc:	f00000b7          	lui	ra,0xf0000
    20e0:	f0000137          	lui	s0,0xf0000
    20e4:	fff10113          	addi	s0,s0,-1 # efffffff <begin_signature+0xefffdcef>
    20e8:	2020e663          	bltu	ra,s0,22f4 <fail>
    20ec:	00120213          	addi	s2,s2,1
    20f0:	00200293          	li	s3,2
    20f4:	fe5214e3          	bne	s2,s3,20dc <test_9+0x8>

000020f8 <test_10>:
    20f8:	00a00e13          	li	t2,10
    20fc:	00000213          	li	s2,0
    2100:	f00000b7          	lui	ra,0xf0000
    2104:	f0000137          	lui	s0,0xf0000
    2108:	fff10113          	addi	s0,s0,-1 # efffffff <begin_signature+0xefffdcef>
    210c:	00000013          	nop
    2110:	1e20e263          	bltu	ra,s0,22f4 <fail>
    2114:	00120213          	addi	s2,s2,1
    2118:	00200293          	li	s3,2
    211c:	fe5212e3          	bne	s2,s3,2100 <test_10+0x8>

00002120 <test_11>:
    2120:	00b00e13          	li	t2,11
    2124:	00000213          	li	s2,0
    2128:	f00000b7          	lui	ra,0xf0000
    212c:	f0000137          	lui	s0,0xf0000
    2130:	fff10113          	addi	s0,s0,-1 # efffffff <begin_signature+0xefffdcef>
    2134:	00000013          	nop
    2138:	00000013          	nop
    213c:	1a20ec63          	bltu	ra,s0,22f4 <fail>
    2140:	00120213          	addi	s2,s2,1
    2144:	00200293          	li	s3,2
    2148:	fe5210e3          	bne	s2,s3,2128 <test_11+0x8>

0000214c <test_12>:
    214c:	00c00e13          	li	t2,12
    2150:	00000213          	li	s2,0
    2154:	f00000b7          	lui	ra,0xf0000
    2158:	00000013          	nop
    215c:	f0000137          	lui	s0,0xf0000
    2160:	fff10113          	addi	s0,s0,-1 # efffffff <begin_signature+0xefffdcef>
    2164:	1820e863          	bltu	ra,s0,22f4 <fail>
    2168:	00120213          	addi	s2,s2,1
    216c:	00200293          	li	s3,2
    2170:	fe5212e3          	bne	s2,s3,2154 <test_12+0x8>

00002174 <test_13>:
    2174:	00d00e13          	li	t2,13
    2178:	00000213          	li	s2,0
    217c:	f00000b7          	lui	ra,0xf0000
    2180:	00000013          	nop
    2184:	f0000137          	lui	s0,0xf0000
    2188:	fff10113          	addi	s0,s0,-1 # efffffff <begin_signature+0xefffdcef>
    218c:	00000013          	nop
    2190:	1620e263          	bltu	ra,s0,22f4 <fail>
    2194:	00120213          	addi	s2,s2,1
    2198:	00200293          	li	s3,2
    219c:	fe5210e3          	bne	s2,s3,217c <test_13+0x8>

000021a0 <test_14>:
    21a0:	00e00e13          	li	t2,14
    21a4:	00000213          	li	s2,0
    21a8:	f00000b7          	lui	ra,0xf0000
    21ac:	00000013          	nop
    21b0:	00000013          	nop
    21b4:	f0000137          	lui	s0,0xf0000
    21b8:	fff10113          	addi	s0,s0,-1 # efffffff <begin_signature+0xefffdcef>
    21bc:	1220ec63          	bltu	ra,s0,22f4 <fail>
    21c0:	00120213          	addi	s2,s2,1
    21c4:	00200293          	li	s3,2
    21c8:	fe5210e3          	bne	s2,s3,21a8 <test_14+0x8>

000021cc <test_15>:
    21cc:	00f00e13          	li	t2,15
    21d0:	00000213          	li	s2,0
    21d4:	f00000b7          	lui	ra,0xf0000
    21d8:	f0000137          	lui	s0,0xf0000
    21dc:	fff10113          	addi	s0,s0,-1 # efffffff <begin_signature+0xefffdcef>
    21e0:	1020ea63          	bltu	ra,s0,22f4 <fail>
    21e4:	00120213          	addi	s2,s2,1
    21e8:	00200293          	li	s3,2
    21ec:	fe5214e3          	bne	s2,s3,21d4 <test_15+0x8>

000021f0 <test_16>:
    21f0:	01000e13          	li	t2,16
    21f4:	00000213          	li	s2,0
    21f8:	f00000b7          	lui	ra,0xf0000
    21fc:	f0000137          	lui	s0,0xf0000
    2200:	fff10113          	addi	s0,s0,-1 # efffffff <begin_signature+0xefffdcef>
    2204:	00000013          	nop
    2208:	0e20e663          	bltu	ra,s0,22f4 <fail>
    220c:	00120213          	addi	s2,s2,1
    2210:	00200293          	li	s3,2
    2214:	fe5212e3          	bne	s2,s3,21f8 <test_16+0x8>

00002218 <test_17>:
    2218:	01100e13          	li	t2,17
    221c:	00000213          	li	s2,0
    2220:	f00000b7          	lui	ra,0xf0000
    2224:	f0000137          	lui	s0,0xf0000
    2228:	fff10113          	addi	s0,s0,-1 # efffffff <begin_signature+0xefffdcef>
    222c:	00000013          	nop
    2230:	00000013          	nop
    2234:	0c20e063          	bltu	ra,s0,22f4 <fail>
    2238:	00120213          	addi	s2,s2,1
    223c:	00200293          	li	s3,2
    2240:	fe5210e3          	bne	s2,s3,2220 <test_17+0x8>

00002244 <test_18>:
    2244:	01200e13          	li	t2,18
    2248:	00000213          	li	s2,0
    224c:	f00000b7          	lui	ra,0xf0000
    2250:	00000013          	nop
    2254:	f0000137          	lui	s0,0xf0000
    2258:	fff10113          	addi	s0,s0,-1 # efffffff <begin_signature+0xefffdcef>
    225c:	0820ec63          	bltu	ra,s0,22f4 <fail>
    2260:	00120213          	addi	s2,s2,1
    2264:	00200293          	li	s3,2
    2268:	fe5212e3          	bne	s2,s3,224c <test_18+0x8>

0000226c <test_19>:
    226c:	01300e13          	li	t2,19
    2270:	00000213          	li	s2,0
    2274:	f00000b7          	lui	ra,0xf0000
    2278:	00000013          	nop
    227c:	f0000137          	lui	s0,0xf0000
    2280:	fff10113          	addi	s0,s0,-1 # efffffff <begin_signature+0xefffdcef>
    2284:	00000013          	nop
    2288:	0620e663          	bltu	ra,s0,22f4 <fail>
    228c:	00120213          	addi	s2,s2,1
    2290:	00200293          	li	s3,2
    2294:	fe5210e3          	bne	s2,s3,2274 <test_19+0x8>

00002298 <test_20>:
    2298:	01400e13          	li	t2,20
    229c:	00000213          	li	s2,0
    22a0:	f00000b7          	lui	ra,0xf0000
    22a4:	00000013          	nop
    22a8:	00000013          	nop
    22ac:	f0000137          	lui	s0,0xf0000
    22b0:	fff10113          	addi	s0,s0,-1 # efffffff <begin_signature+0xefffdcef>
    22b4:	0420e063          	bltu	ra,s0,22f4 <fail>
    22b8:	00120213          	addi	s2,s2,1
    22bc:	00200293          	li	s3,2
    22c0:	fe5210e3          	bne	s2,s3,22a0 <test_20+0x8>

000022c4 <test_21>:
    22c4:	00100093          	li	ra,1
    22c8:	00106a63          	bltu	zero,ra,22dc <test_21+0x18>
    22cc:	00108093          	addi	ra,ra,1 # f0000001 <begin_signature+0xefffdcf1>
    22d0:	00108093          	addi	ra,ra,1
    22d4:	00108093          	addi	ra,ra,1
    22d8:	00108093          	addi	ra,ra,1
    22dc:	00108093          	addi	ra,ra,1
    22e0:	00108093          	addi	ra,ra,1
    22e4:	00300e93          	li	t3,3
    22e8:	01500e13          	li	t2,21
    22ec:	01d09463          	bne	ra,t3,22f4 <fail>
    22f0:	01c01c63          	bne	zero,t2,2308 <pass>

000022f4 <fail>:
    22f4:	000e0863          	beqz	t2,2304 <fail+0x10>
    22f8:	001e1e13          	slli	t2,t2,0x1
    22fc:	001e6e13          	ori	t2,t2,1
    2300:	51ee1073          	csrw	tohost,t2
    2304:	00000063          	b	2304 <fail+0x10>

00002308 <pass>:
    2308:	51e0d073          	csrwi	tohost,1
    230c:	00000063          	b	230c <pass+0x4>
