
rv32ui-p-lhu:     file format elf32-littleriscv


Disassembly of section .text:

00002000 <_start>:
    2000:	00000097          	auipc	ra,0x0
    2004:	2a008093          	addi	ra,ra,672 # 22a0 <begin_signature>
    2008:	0000d183          	lhu	s1,0(ra)
    200c:	0ff00e93          	li	t3,255
    2010:	00200e13          	li	t2,2
    2014:	27d19663          	bne	s1,t3,2280 <fail>

00002018 <test_3>:
    2018:	00000097          	auipc	ra,0x0
    201c:	28808093          	addi	ra,ra,648 # 22a0 <begin_signature>
    2020:	0020d183          	lhu	s1,2(ra)
    2024:	00010eb7          	lui	t3,0x10
    2028:	f00e8e93          	addi	t3,t3,-256 # ff00 <_end+0xdc50>
    202c:	00300e13          	li	t2,3
    2030:	25d19863          	bne	s1,t3,2280 <fail>

00002034 <test_4>:
    2034:	00000097          	auipc	ra,0x0
    2038:	26c08093          	addi	ra,ra,620 # 22a0 <begin_signature>
    203c:	0040d183          	lhu	s1,4(ra)
    2040:	00001eb7          	lui	t3,0x1
    2044:	ff0e8e93          	addi	t3,t3,-16 # ff0 <_start-0x1010>
    2048:	00400e13          	li	t2,4
    204c:	23d19a63          	bne	s1,t3,2280 <fail>

00002050 <test_5>:
    2050:	00000097          	auipc	ra,0x0
    2054:	25008093          	addi	ra,ra,592 # 22a0 <begin_signature>
    2058:	0060d183          	lhu	s1,6(ra)
    205c:	0000feb7          	lui	t3,0xf
    2060:	00fe8e93          	addi	t3,t3,15 # f00f <_end+0xcd5f>
    2064:	00500e13          	li	t2,5
    2068:	21d19c63          	bne	s1,t3,2280 <fail>

0000206c <test_6>:
    206c:	00000097          	auipc	ra,0x0
    2070:	23a08093          	addi	ra,ra,570 # 22a6 <tdat4>
    2074:	ffa0d183          	lhu	s1,-6(ra)
    2078:	0ff00e93          	li	t3,255
    207c:	00600e13          	li	t2,6
    2080:	21d19063          	bne	s1,t3,2280 <fail>

00002084 <test_7>:
    2084:	00000097          	auipc	ra,0x0
    2088:	22208093          	addi	ra,ra,546 # 22a6 <tdat4>
    208c:	ffc0d183          	lhu	s1,-4(ra)
    2090:	00010eb7          	lui	t3,0x10
    2094:	f00e8e93          	addi	t3,t3,-256 # ff00 <_end+0xdc50>
    2098:	00700e13          	li	t2,7
    209c:	1fd19263          	bne	s1,t3,2280 <fail>

000020a0 <test_8>:
    20a0:	00000097          	auipc	ra,0x0
    20a4:	20608093          	addi	ra,ra,518 # 22a6 <tdat4>
    20a8:	ffe0d183          	lhu	s1,-2(ra)
    20ac:	00001eb7          	lui	t3,0x1
    20b0:	ff0e8e93          	addi	t3,t3,-16 # ff0 <_start-0x1010>
    20b4:	00800e13          	li	t2,8
    20b8:	1dd19463          	bne	s1,t3,2280 <fail>

000020bc <test_9>:
    20bc:	00000097          	auipc	ra,0x0
    20c0:	1ea08093          	addi	ra,ra,490 # 22a6 <tdat4>
    20c4:	0000d183          	lhu	s1,0(ra)
    20c8:	0000feb7          	lui	t3,0xf
    20cc:	00fe8e93          	addi	t3,t3,15 # f00f <_end+0xcd5f>
    20d0:	00900e13          	li	t2,9
    20d4:	1bd19663          	bne	s1,t3,2280 <fail>

000020d8 <test_10>:
    20d8:	00000097          	auipc	ra,0x0
    20dc:	1c808093          	addi	ra,ra,456 # 22a0 <begin_signature>
    20e0:	fe008093          	addi	ra,ra,-32
    20e4:	0200d183          	lhu	s1,32(ra)
    20e8:	0ff00e93          	li	t3,255
    20ec:	00a00e13          	li	t2,10
    20f0:	19d19863          	bne	s1,t3,2280 <fail>

000020f4 <test_11>:
    20f4:	00000097          	auipc	ra,0x0
    20f8:	1ac08093          	addi	ra,ra,428 # 22a0 <begin_signature>
    20fc:	ffb08093          	addi	ra,ra,-5
    2100:	0070d183          	lhu	s1,7(ra)
    2104:	00010eb7          	lui	t3,0x10
    2108:	f00e8e93          	addi	t3,t3,-256 # ff00 <_end+0xdc50>
    210c:	00b00e13          	li	t2,11
    2110:	17d19863          	bne	s1,t3,2280 <fail>

00002114 <test_12>:
    2114:	00c00e13          	li	t2,12
    2118:	00000213          	li	s2,0
    211c:	00000097          	auipc	ra,0x0
    2120:	18608093          	addi	ra,ra,390 # 22a2 <tdat2>
    2124:	0020d183          	lhu	s1,2(ra)
    2128:	00018313          	mv	s4,s1
    212c:	00001eb7          	lui	t3,0x1
    2130:	ff0e8e93          	addi	t3,t3,-16 # ff0 <_start-0x1010>
    2134:	15d31663          	bne	s4,t3,2280 <fail>
    2138:	00120213          	addi	s2,s2,1
    213c:	00200293          	li	s3,2
    2140:	fc521ee3          	bne	s2,s3,211c <test_12+0x8>

00002144 <test_13>:
    2144:	00d00e13          	li	t2,13
    2148:	00000213          	li	s2,0
    214c:	00000097          	auipc	ra,0x0
    2150:	15808093          	addi	ra,ra,344 # 22a4 <tdat3>
    2154:	0020d183          	lhu	s1,2(ra)
    2158:	00000013          	nop
    215c:	00018313          	mv	s4,s1
    2160:	0000feb7          	lui	t3,0xf
    2164:	00fe8e93          	addi	t3,t3,15 # f00f <_end+0xcd5f>
    2168:	11d31c63          	bne	s4,t3,2280 <fail>
    216c:	00120213          	addi	s2,s2,1
    2170:	00200293          	li	s3,2
    2174:	fc521ce3          	bne	s2,s3,214c <test_13+0x8>

00002178 <test_14>:
    2178:	00e00e13          	li	t2,14
    217c:	00000213          	li	s2,0
    2180:	00000097          	auipc	ra,0x0
    2184:	12008093          	addi	ra,ra,288 # 22a0 <begin_signature>
    2188:	0020d183          	lhu	s1,2(ra)
    218c:	00000013          	nop
    2190:	00000013          	nop
    2194:	00018313          	mv	s4,s1
    2198:	00010eb7          	lui	t3,0x10
    219c:	f00e8e93          	addi	t3,t3,-256 # ff00 <_end+0xdc50>
    21a0:	0fd31063          	bne	s4,t3,2280 <fail>
    21a4:	00120213          	addi	s2,s2,1
    21a8:	00200293          	li	s3,2
    21ac:	fc521ae3          	bne	s2,s3,2180 <test_14+0x8>

000021b0 <test_15>:
    21b0:	00f00e13          	li	t2,15
    21b4:	00000213          	li	s2,0
    21b8:	00000097          	auipc	ra,0x0
    21bc:	0ea08093          	addi	ra,ra,234 # 22a2 <tdat2>
    21c0:	0020d183          	lhu	s1,2(ra)
    21c4:	00001eb7          	lui	t3,0x1
    21c8:	ff0e8e93          	addi	t3,t3,-16 # ff0 <_start-0x1010>
    21cc:	0bd19a63          	bne	s1,t3,2280 <fail>
    21d0:	00120213          	addi	s2,s2,1
    21d4:	00200293          	li	s3,2
    21d8:	fe5210e3          	bne	s2,s3,21b8 <test_15+0x8>

000021dc <test_16>:
    21dc:	01000e13          	li	t2,16
    21e0:	00000213          	li	s2,0
    21e4:	00000097          	auipc	ra,0x0
    21e8:	0c008093          	addi	ra,ra,192 # 22a4 <tdat3>
    21ec:	00000013          	nop
    21f0:	0020d183          	lhu	s1,2(ra)
    21f4:	0000feb7          	lui	t3,0xf
    21f8:	00fe8e93          	addi	t3,t3,15 # f00f <_end+0xcd5f>
    21fc:	09d19263          	bne	s1,t3,2280 <fail>
    2200:	00120213          	addi	s2,s2,1
    2204:	00200293          	li	s3,2
    2208:	fc521ee3          	bne	s2,s3,21e4 <test_16+0x8>

0000220c <test_17>:
    220c:	01100e13          	li	t2,17
    2210:	00000213          	li	s2,0
    2214:	00000097          	auipc	ra,0x0
    2218:	08c08093          	addi	ra,ra,140 # 22a0 <begin_signature>
    221c:	00000013          	nop
    2220:	00000013          	nop
    2224:	0020d183          	lhu	s1,2(ra)
    2228:	00010eb7          	lui	t3,0x10
    222c:	f00e8e93          	addi	t3,t3,-256 # ff00 <_end+0xdc50>
    2230:	05d19863          	bne	s1,t3,2280 <fail>
    2234:	00120213          	addi	s2,s2,1
    2238:	00200293          	li	s3,2
    223c:	fc521ce3          	bne	s2,s3,2214 <test_17+0x8>

00002240 <test_18>:
    2240:	00000197          	auipc	s1,0x0
    2244:	06018193          	addi	s1,s1,96 # 22a0 <begin_signature>
    2248:	0001d103          	lhu	s0,0(s1)
    224c:	00200113          	li	s0,2
    2250:	00200e93          	li	t3,2
    2254:	01200e13          	li	t2,18
    2258:	03d11463          	bne	s0,t3,2280 <fail>

0000225c <test_19>:
    225c:	00000197          	auipc	s1,0x0
    2260:	04418193          	addi	s1,s1,68 # 22a0 <begin_signature>
    2264:	0001d103          	lhu	s0,0(s1)
    2268:	00000013          	nop
    226c:	00200113          	li	s0,2
    2270:	00200e93          	li	t3,2
    2274:	01300e13          	li	t2,19
    2278:	01d11463          	bne	s0,t3,2280 <fail>
    227c:	01c01c63          	bne	zero,t2,2294 <pass>

00002280 <fail>:
    2280:	000e0863          	beqz	t2,2290 <fail+0x10>
    2284:	001e1e13          	slli	t2,t2,0x1
    2288:	001e6e13          	ori	t2,t2,1
    228c:	51ee1073          	csrw	tohost,t2
    2290:	00000063          	b	2290 <fail+0x10>

00002294 <pass>:
    2294:	51e0d073          	csrwi	tohost,1
    2298:	00000063          	b	2298 <pass+0x4>
    229c:	00000013          	nop
