
rv32ui-p-lh:     file format elf32-littleriscv


Disassembly of section .text:

00002000 <_start>:
    2000:	00000097          	auipc	ra,0x0
    2004:	29008093          	addi	ra,ra,656 # 2290 <begin_signature>
    2008:	00009183          	lh	s1,0(ra)
    200c:	0ff00e93          	li	t3,255
    2010:	00200e13          	li	t2,2
    2014:	25d19c63          	bne	s1,t3,226c <fail>

00002018 <test_3>:
    2018:	00000097          	auipc	ra,0x0
    201c:	27808093          	addi	ra,ra,632 # 2290 <begin_signature>
    2020:	00209183          	lh	s1,2(ra)
    2024:	f0000e93          	li	t3,-256
    2028:	00300e13          	li	t2,3
    202c:	25d19063          	bne	s1,t3,226c <fail>

00002030 <test_4>:
    2030:	00000097          	auipc	ra,0x0
    2034:	26008093          	addi	ra,ra,608 # 2290 <begin_signature>
    2038:	00409183          	lh	s1,4(ra)
    203c:	00001eb7          	lui	t3,0x1
    2040:	ff0e8e93          	addi	t3,t3,-16 # ff0 <_start-0x1010>
    2044:	00400e13          	li	t2,4
    2048:	23d19263          	bne	s1,t3,226c <fail>

0000204c <test_5>:
    204c:	00000097          	auipc	ra,0x0
    2050:	24408093          	addi	ra,ra,580 # 2290 <begin_signature>
    2054:	00609183          	lh	s1,6(ra)
    2058:	fffffeb7          	lui	t3,0xfffff
    205c:	00fe8e93          	addi	t3,t3,15 # fffff00f <_end+0xffffcd6f>
    2060:	00500e13          	li	t2,5
    2064:	21d19463          	bne	s1,t3,226c <fail>

00002068 <test_6>:
    2068:	00000097          	auipc	ra,0x0
    206c:	22e08093          	addi	ra,ra,558 # 2296 <tdat4>
    2070:	ffa09183          	lh	s1,-6(ra)
    2074:	0ff00e93          	li	t3,255
    2078:	00600e13          	li	t2,6
    207c:	1fd19863          	bne	s1,t3,226c <fail>

00002080 <test_7>:
    2080:	00000097          	auipc	ra,0x0
    2084:	21608093          	addi	ra,ra,534 # 2296 <tdat4>
    2088:	ffc09183          	lh	s1,-4(ra)
    208c:	f0000e93          	li	t3,-256
    2090:	00700e13          	li	t2,7
    2094:	1dd19c63          	bne	s1,t3,226c <fail>

00002098 <test_8>:
    2098:	00000097          	auipc	ra,0x0
    209c:	1fe08093          	addi	ra,ra,510 # 2296 <tdat4>
    20a0:	ffe09183          	lh	s1,-2(ra)
    20a4:	00001eb7          	lui	t3,0x1
    20a8:	ff0e8e93          	addi	t3,t3,-16 # ff0 <_start-0x1010>
    20ac:	00800e13          	li	t2,8
    20b0:	1bd19e63          	bne	s1,t3,226c <fail>

000020b4 <test_9>:
    20b4:	00000097          	auipc	ra,0x0
    20b8:	1e208093          	addi	ra,ra,482 # 2296 <tdat4>
    20bc:	00009183          	lh	s1,0(ra)
    20c0:	fffffeb7          	lui	t3,0xfffff
    20c4:	00fe8e93          	addi	t3,t3,15 # fffff00f <_end+0xffffcd6f>
    20c8:	00900e13          	li	t2,9
    20cc:	1bd19063          	bne	s1,t3,226c <fail>

000020d0 <test_10>:
    20d0:	00000097          	auipc	ra,0x0
    20d4:	1c008093          	addi	ra,ra,448 # 2290 <begin_signature>
    20d8:	fe008093          	addi	ra,ra,-32
    20dc:	02009183          	lh	s1,32(ra)
    20e0:	0ff00e93          	li	t3,255
    20e4:	00a00e13          	li	t2,10
    20e8:	19d19263          	bne	s1,t3,226c <fail>

000020ec <test_11>:
    20ec:	00000097          	auipc	ra,0x0
    20f0:	1a408093          	addi	ra,ra,420 # 2290 <begin_signature>
    20f4:	ffb08093          	addi	ra,ra,-5
    20f8:	00709183          	lh	s1,7(ra)
    20fc:	f0000e93          	li	t3,-256
    2100:	00b00e13          	li	t2,11
    2104:	17d19463          	bne	s1,t3,226c <fail>

00002108 <test_12>:
    2108:	00c00e13          	li	t2,12
    210c:	00000213          	li	s2,0
    2110:	00000097          	auipc	ra,0x0
    2114:	18208093          	addi	ra,ra,386 # 2292 <tdat2>
    2118:	00209183          	lh	s1,2(ra)
    211c:	00018313          	mv	s4,s1
    2120:	00001eb7          	lui	t3,0x1
    2124:	ff0e8e93          	addi	t3,t3,-16 # ff0 <_start-0x1010>
    2128:	15d31263          	bne	s4,t3,226c <fail>
    212c:	00120213          	addi	s2,s2,1
    2130:	00200293          	li	s3,2
    2134:	fc521ee3          	bne	s2,s3,2110 <test_12+0x8>

00002138 <test_13>:
    2138:	00d00e13          	li	t2,13
    213c:	00000213          	li	s2,0
    2140:	00000097          	auipc	ra,0x0
    2144:	15408093          	addi	ra,ra,340 # 2294 <tdat3>
    2148:	00209183          	lh	s1,2(ra)
    214c:	00000013          	nop
    2150:	00018313          	mv	s4,s1
    2154:	fffffeb7          	lui	t3,0xfffff
    2158:	00fe8e93          	addi	t3,t3,15 # fffff00f <_end+0xffffcd6f>
    215c:	11d31863          	bne	s4,t3,226c <fail>
    2160:	00120213          	addi	s2,s2,1
    2164:	00200293          	li	s3,2
    2168:	fc521ce3          	bne	s2,s3,2140 <test_13+0x8>

0000216c <test_14>:
    216c:	00e00e13          	li	t2,14
    2170:	00000213          	li	s2,0
    2174:	00000097          	auipc	ra,0x0
    2178:	11c08093          	addi	ra,ra,284 # 2290 <begin_signature>
    217c:	00209183          	lh	s1,2(ra)
    2180:	00000013          	nop
    2184:	00000013          	nop
    2188:	00018313          	mv	s4,s1
    218c:	f0000e93          	li	t3,-256
    2190:	0dd31e63          	bne	s4,t3,226c <fail>
    2194:	00120213          	addi	s2,s2,1
    2198:	00200293          	li	s3,2
    219c:	fc521ce3          	bne	s2,s3,2174 <test_14+0x8>

000021a0 <test_15>:
    21a0:	00f00e13          	li	t2,15
    21a4:	00000213          	li	s2,0
    21a8:	00000097          	auipc	ra,0x0
    21ac:	0ea08093          	addi	ra,ra,234 # 2292 <tdat2>
    21b0:	00209183          	lh	s1,2(ra)
    21b4:	00001eb7          	lui	t3,0x1
    21b8:	ff0e8e93          	addi	t3,t3,-16 # ff0 <_start-0x1010>
    21bc:	0bd19863          	bne	s1,t3,226c <fail>
    21c0:	00120213          	addi	s2,s2,1
    21c4:	00200293          	li	s3,2
    21c8:	fe5210e3          	bne	s2,s3,21a8 <test_15+0x8>

000021cc <test_16>:
    21cc:	01000e13          	li	t2,16
    21d0:	00000213          	li	s2,0
    21d4:	00000097          	auipc	ra,0x0
    21d8:	0c008093          	addi	ra,ra,192 # 2294 <tdat3>
    21dc:	00000013          	nop
    21e0:	00209183          	lh	s1,2(ra)
    21e4:	fffffeb7          	lui	t3,0xfffff
    21e8:	00fe8e93          	addi	t3,t3,15 # fffff00f <_end+0xffffcd6f>
    21ec:	09d19063          	bne	s1,t3,226c <fail>
    21f0:	00120213          	addi	s2,s2,1
    21f4:	00200293          	li	s3,2
    21f8:	fc521ee3          	bne	s2,s3,21d4 <test_16+0x8>

000021fc <test_17>:
    21fc:	01100e13          	li	t2,17
    2200:	00000213          	li	s2,0
    2204:	00000097          	auipc	ra,0x0
    2208:	08c08093          	addi	ra,ra,140 # 2290 <begin_signature>
    220c:	00000013          	nop
    2210:	00000013          	nop
    2214:	00209183          	lh	s1,2(ra)
    2218:	f0000e93          	li	t3,-256
    221c:	05d19863          	bne	s1,t3,226c <fail>
    2220:	00120213          	addi	s2,s2,1
    2224:	00200293          	li	s3,2
    2228:	fc521ee3          	bne	s2,s3,2204 <test_17+0x8>

0000222c <test_18>:
    222c:	00000197          	auipc	s1,0x0
    2230:	06418193          	addi	s1,s1,100 # 2290 <begin_signature>
    2234:	00019103          	lh	s0,0(s1)
    2238:	00200113          	li	s0,2
    223c:	00200e93          	li	t3,2
    2240:	01200e13          	li	t2,18
    2244:	03d11463          	bne	s0,t3,226c <fail>

00002248 <test_19>:
    2248:	00000197          	auipc	s1,0x0
    224c:	04818193          	addi	s1,s1,72 # 2290 <begin_signature>
    2250:	00019103          	lh	s0,0(s1)
    2254:	00000013          	nop
    2258:	00200113          	li	s0,2
    225c:	00200e93          	li	t3,2
    2260:	01300e13          	li	t2,19
    2264:	01d11463          	bne	s0,t3,226c <fail>
    2268:	01c01c63          	bne	zero,t2,2280 <pass>

0000226c <fail>:
    226c:	000e0863          	beqz	t2,227c <fail+0x10>
    2270:	001e1e13          	slli	t2,t2,0x1
    2274:	001e6e13          	ori	t2,t2,1
    2278:	51ee1073          	csrw	tohost,t2
    227c:	00000063          	b	227c <fail+0x10>

00002280 <pass>:
    2280:	51e0d073          	csrwi	tohost,1
    2284:	00000063          	b	2284 <pass+0x4>
    2288:	00000013          	nop
    228c:	00000013          	nop
