
rv32ui-p-sra:     file format elf32-littleriscv


Disassembly of section .text:

00002000 <_start>:
    2000:	800000b7          	lui	ra,0x80000
    2004:	00000113          	li	s0,0
    2008:	4020d1b3          	sra	s1,ra,s0
    200c:	80000eb7          	lui	t3,0x80000
    2010:	00200e13          	li	t2,2
    2014:	59d19463          	bne	s1,t3,259c <fail>

00002018 <test_3>:
    2018:	800000b7          	lui	ra,0x80000
    201c:	00100113          	li	s0,1
    2020:	4020d1b3          	sra	s1,ra,s0
    2024:	c0000eb7          	lui	t3,0xc0000
    2028:	00300e13          	li	t2,3
    202c:	57d19863          	bne	s1,t3,259c <fail>

00002030 <test_4>:
    2030:	800000b7          	lui	ra,0x80000
    2034:	00700113          	li	s0,7
    2038:	4020d1b3          	sra	s1,ra,s0
    203c:	ff000eb7          	lui	t3,0xff000
    2040:	00400e13          	li	t2,4
    2044:	55d19c63          	bne	s1,t3,259c <fail>

00002048 <test_5>:
    2048:	800000b7          	lui	ra,0x80000
    204c:	00e00113          	li	s0,14
    2050:	4020d1b3          	sra	s1,ra,s0
    2054:	fffe0eb7          	lui	t3,0xfffe0
    2058:	00500e13          	li	t2,5
    205c:	55d19063          	bne	s1,t3,259c <fail>

00002060 <test_6>:
    2060:	800000b7          	lui	ra,0x80000
    2064:	00108093          	addi	ra,ra,1 # 80000001 <begin_signature+0x7fffda41>
    2068:	01f00113          	li	s0,31
    206c:	4020d1b3          	sra	s1,ra,s0
    2070:	fff00e93          	li	t3,-1
    2074:	00600e13          	li	t2,6
    2078:	53d19263          	bne	s1,t3,259c <fail>

0000207c <test_7>:
    207c:	800000b7          	lui	ra,0x80000
    2080:	fff08093          	addi	ra,ra,-1 # 7fffffff <begin_signature+0x7fffda3f>
    2084:	00000113          	li	s0,0
    2088:	4020d1b3          	sra	s1,ra,s0
    208c:	80000eb7          	lui	t3,0x80000
    2090:	fffe8e93          	addi	t3,t3,-1 # 7fffffff <begin_signature+0x7fffda3f>
    2094:	00700e13          	li	t2,7
    2098:	51d19263          	bne	s1,t3,259c <fail>

0000209c <test_8>:
    209c:	800000b7          	lui	ra,0x80000
    20a0:	fff08093          	addi	ra,ra,-1 # 7fffffff <begin_signature+0x7fffda3f>
    20a4:	00100113          	li	s0,1
    20a8:	4020d1b3          	sra	s1,ra,s0
    20ac:	40000eb7          	lui	t3,0x40000
    20b0:	fffe8e93          	addi	t3,t3,-1 # 3fffffff <begin_signature+0x3fffda3f>
    20b4:	00800e13          	li	t2,8
    20b8:	4fd19263          	bne	s1,t3,259c <fail>

000020bc <test_9>:
    20bc:	800000b7          	lui	ra,0x80000
    20c0:	fff08093          	addi	ra,ra,-1 # 7fffffff <begin_signature+0x7fffda3f>
    20c4:	00700113          	li	s0,7
    20c8:	4020d1b3          	sra	s1,ra,s0
    20cc:	01000eb7          	lui	t3,0x1000
    20d0:	fffe8e93          	addi	t3,t3,-1 # ffffff <begin_signature+0xffda3f>
    20d4:	00900e13          	li	t2,9
    20d8:	4dd19263          	bne	s1,t3,259c <fail>

000020dc <test_10>:
    20dc:	800000b7          	lui	ra,0x80000
    20e0:	fff08093          	addi	ra,ra,-1 # 7fffffff <begin_signature+0x7fffda3f>
    20e4:	00e00113          	li	s0,14
    20e8:	4020d1b3          	sra	s1,ra,s0
    20ec:	00020eb7          	lui	t3,0x20
    20f0:	fffe8e93          	addi	t3,t3,-1 # 1ffff <begin_signature+0x1da3f>
    20f4:	00a00e13          	li	t2,10
    20f8:	4bd19263          	bne	s1,t3,259c <fail>

000020fc <test_11>:
    20fc:	800000b7          	lui	ra,0x80000
    2100:	fff08093          	addi	ra,ra,-1 # 7fffffff <begin_signature+0x7fffda3f>
    2104:	01f00113          	li	s0,31
    2108:	4020d1b3          	sra	s1,ra,s0
    210c:	00000e93          	li	t3,0
    2110:	00b00e13          	li	t2,11
    2114:	49d19463          	bne	s1,t3,259c <fail>

00002118 <test_12>:
    2118:	818180b7          	lui	ra,0x81818
    211c:	18108093          	addi	ra,ra,385 # 81818181 <begin_signature+0x81815bc1>
    2120:	00000113          	li	s0,0
    2124:	4020d1b3          	sra	s1,ra,s0
    2128:	81818eb7          	lui	t3,0x81818
    212c:	181e8e93          	addi	t3,t3,385 # 81818181 <begin_signature+0x81815bc1>
    2130:	00c00e13          	li	t2,12
    2134:	47d19463          	bne	s1,t3,259c <fail>

00002138 <test_13>:
    2138:	818180b7          	lui	ra,0x81818
    213c:	18108093          	addi	ra,ra,385 # 81818181 <begin_signature+0x81815bc1>
    2140:	00100113          	li	s0,1
    2144:	4020d1b3          	sra	s1,ra,s0
    2148:	c0c0ceb7          	lui	t3,0xc0c0c
    214c:	0c0e8e93          	addi	t3,t3,192 # c0c0c0c0 <begin_signature+0xc0c09b00>
    2150:	00d00e13          	li	t2,13
    2154:	45d19463          	bne	s1,t3,259c <fail>

00002158 <test_14>:
    2158:	818180b7          	lui	ra,0x81818
    215c:	18108093          	addi	ra,ra,385 # 81818181 <begin_signature+0x81815bc1>
    2160:	00700113          	li	s0,7
    2164:	4020d1b3          	sra	s1,ra,s0
    2168:	ff030eb7          	lui	t3,0xff030
    216c:	303e8e93          	addi	t3,t3,771 # ff030303 <begin_signature+0xff02dd43>
    2170:	00e00e13          	li	t2,14
    2174:	43d19463          	bne	s1,t3,259c <fail>

00002178 <test_15>:
    2178:	818180b7          	lui	ra,0x81818
    217c:	18108093          	addi	ra,ra,385 # 81818181 <begin_signature+0x81815bc1>
    2180:	00e00113          	li	s0,14
    2184:	4020d1b3          	sra	s1,ra,s0
    2188:	fffe0eb7          	lui	t3,0xfffe0
    218c:	606e8e93          	addi	t3,t3,1542 # fffe0606 <begin_signature+0xfffde046>
    2190:	00f00e13          	li	t2,15
    2194:	41d19463          	bne	s1,t3,259c <fail>

00002198 <test_16>:
    2198:	818180b7          	lui	ra,0x81818
    219c:	18108093          	addi	ra,ra,385 # 81818181 <begin_signature+0x81815bc1>
    21a0:	01f00113          	li	s0,31
    21a4:	4020d1b3          	sra	s1,ra,s0
    21a8:	fff00e93          	li	t3,-1
    21ac:	01000e13          	li	t2,16
    21b0:	3fd19663          	bne	s1,t3,259c <fail>

000021b4 <test_17>:
    21b4:	818180b7          	lui	ra,0x81818
    21b8:	18108093          	addi	ra,ra,385 # 81818181 <begin_signature+0x81815bc1>
    21bc:	fc000113          	li	s0,-64
    21c0:	4020d1b3          	sra	s1,ra,s0
    21c4:	81818eb7          	lui	t3,0x81818
    21c8:	181e8e93          	addi	t3,t3,385 # 81818181 <begin_signature+0x81815bc1>
    21cc:	01100e13          	li	t2,17
    21d0:	3dd19663          	bne	s1,t3,259c <fail>

000021d4 <test_18>:
    21d4:	818180b7          	lui	ra,0x81818
    21d8:	18108093          	addi	ra,ra,385 # 81818181 <begin_signature+0x81815bc1>
    21dc:	fc100113          	li	s0,-63
    21e0:	4020d1b3          	sra	s1,ra,s0
    21e4:	c0c0ceb7          	lui	t3,0xc0c0c
    21e8:	0c0e8e93          	addi	t3,t3,192 # c0c0c0c0 <begin_signature+0xc0c09b00>
    21ec:	01200e13          	li	t2,18
    21f0:	3bd19663          	bne	s1,t3,259c <fail>

000021f4 <test_19>:
    21f4:	818180b7          	lui	ra,0x81818
    21f8:	18108093          	addi	ra,ra,385 # 81818181 <begin_signature+0x81815bc1>
    21fc:	fc700113          	li	s0,-57
    2200:	4020d1b3          	sra	s1,ra,s0
    2204:	ff030eb7          	lui	t3,0xff030
    2208:	303e8e93          	addi	t3,t3,771 # ff030303 <begin_signature+0xff02dd43>
    220c:	01300e13          	li	t2,19
    2210:	39d19663          	bne	s1,t3,259c <fail>

00002214 <test_20>:
    2214:	818180b7          	lui	ra,0x81818
    2218:	18108093          	addi	ra,ra,385 # 81818181 <begin_signature+0x81815bc1>
    221c:	fce00113          	li	s0,-50
    2220:	4020d1b3          	sra	s1,ra,s0
    2224:	fffe0eb7          	lui	t3,0xfffe0
    2228:	606e8e93          	addi	t3,t3,1542 # fffe0606 <begin_signature+0xfffde046>
    222c:	01400e13          	li	t2,20
    2230:	37d19663          	bne	s1,t3,259c <fail>

00002234 <test_21>:
    2234:	818180b7          	lui	ra,0x81818
    2238:	18108093          	addi	ra,ra,385 # 81818181 <begin_signature+0x81815bc1>
    223c:	fff00113          	li	s0,-1
    2240:	4020d1b3          	sra	s1,ra,s0
    2244:	fff00e93          	li	t3,-1
    2248:	01500e13          	li	t2,21
    224c:	35d19863          	bne	s1,t3,259c <fail>

00002250 <test_22>:
    2250:	800000b7          	lui	ra,0x80000
    2254:	00700113          	li	s0,7
    2258:	4020d0b3          	sra	ra,ra,s0
    225c:	ff000eb7          	lui	t3,0xff000
    2260:	01600e13          	li	t2,22
    2264:	33d09c63          	bne	ra,t3,259c <fail>

00002268 <test_23>:
    2268:	800000b7          	lui	ra,0x80000
    226c:	00e00113          	li	s0,14
    2270:	4020d133          	sra	s0,ra,s0
    2274:	fffe0eb7          	lui	t3,0xfffe0
    2278:	01700e13          	li	t2,23
    227c:	33d11063          	bne	s0,t3,259c <fail>

00002280 <test_24>:
    2280:	00700093          	li	ra,7
    2284:	4010d0b3          	sra	ra,ra,ra
    2288:	00000e93          	li	t3,0
    228c:	01800e13          	li	t2,24
    2290:	31d09663          	bne	ra,t3,259c <fail>

00002294 <test_25>:
    2294:	00000213          	li	s2,0
    2298:	800000b7          	lui	ra,0x80000
    229c:	00700113          	li	s0,7
    22a0:	4020d1b3          	sra	s1,ra,s0
    22a4:	00018313          	mv	s4,s1
    22a8:	00120213          	addi	s2,s2,1
    22ac:	00200293          	li	s3,2
    22b0:	fe5214e3          	bne	s2,s3,2298 <test_25+0x4>
    22b4:	ff000eb7          	lui	t3,0xff000
    22b8:	01900e13          	li	t2,25
    22bc:	2fd31063          	bne	s4,t3,259c <fail>

000022c0 <test_26>:
    22c0:	00000213          	li	s2,0
    22c4:	800000b7          	lui	ra,0x80000
    22c8:	00e00113          	li	s0,14
    22cc:	4020d1b3          	sra	s1,ra,s0
    22d0:	00000013          	nop
    22d4:	00018313          	mv	s4,s1
    22d8:	00120213          	addi	s2,s2,1
    22dc:	00200293          	li	s3,2
    22e0:	fe5212e3          	bne	s2,s3,22c4 <test_26+0x4>
    22e4:	fffe0eb7          	lui	t3,0xfffe0
    22e8:	01a00e13          	li	t2,26
    22ec:	2bd31863          	bne	s4,t3,259c <fail>

000022f0 <test_27>:
    22f0:	00000213          	li	s2,0
    22f4:	800000b7          	lui	ra,0x80000
    22f8:	01f00113          	li	s0,31
    22fc:	4020d1b3          	sra	s1,ra,s0
    2300:	00000013          	nop
    2304:	00000013          	nop
    2308:	00018313          	mv	s4,s1
    230c:	00120213          	addi	s2,s2,1
    2310:	00200293          	li	s3,2
    2314:	fe5210e3          	bne	s2,s3,22f4 <test_27+0x4>
    2318:	fff00e93          	li	t3,-1
    231c:	01b00e13          	li	t2,27
    2320:	27d31e63          	bne	s4,t3,259c <fail>

00002324 <test_28>:
    2324:	00000213          	li	s2,0
    2328:	800000b7          	lui	ra,0x80000
    232c:	00700113          	li	s0,7
    2330:	4020d1b3          	sra	s1,ra,s0
    2334:	00120213          	addi	s2,s2,1
    2338:	00200293          	li	s3,2
    233c:	fe5216e3          	bne	s2,s3,2328 <test_28+0x4>
    2340:	ff000eb7          	lui	t3,0xff000
    2344:	01c00e13          	li	t2,28
    2348:	25d19a63          	bne	s1,t3,259c <fail>

0000234c <test_29>:
    234c:	00000213          	li	s2,0
    2350:	800000b7          	lui	ra,0x80000
    2354:	00e00113          	li	s0,14
    2358:	00000013          	nop
    235c:	4020d1b3          	sra	s1,ra,s0
    2360:	00120213          	addi	s2,s2,1
    2364:	00200293          	li	s3,2
    2368:	fe5214e3          	bne	s2,s3,2350 <test_29+0x4>
    236c:	fffe0eb7          	lui	t3,0xfffe0
    2370:	01d00e13          	li	t2,29
    2374:	23d19463          	bne	s1,t3,259c <fail>

00002378 <test_30>:
    2378:	00000213          	li	s2,0
    237c:	800000b7          	lui	ra,0x80000
    2380:	01f00113          	li	s0,31
    2384:	00000013          	nop
    2388:	00000013          	nop
    238c:	4020d1b3          	sra	s1,ra,s0
    2390:	00120213          	addi	s2,s2,1
    2394:	00200293          	li	s3,2
    2398:	fe5212e3          	bne	s2,s3,237c <test_30+0x4>
    239c:	fff00e93          	li	t3,-1
    23a0:	01e00e13          	li	t2,30
    23a4:	1fd19c63          	bne	s1,t3,259c <fail>

000023a8 <test_31>:
    23a8:	00000213          	li	s2,0
    23ac:	800000b7          	lui	ra,0x80000
    23b0:	00000013          	nop
    23b4:	00700113          	li	s0,7
    23b8:	4020d1b3          	sra	s1,ra,s0
    23bc:	00120213          	addi	s2,s2,1
    23c0:	00200293          	li	s3,2
    23c4:	fe5214e3          	bne	s2,s3,23ac <test_31+0x4>
    23c8:	ff000eb7          	lui	t3,0xff000
    23cc:	01f00e13          	li	t2,31
    23d0:	1dd19663          	bne	s1,t3,259c <fail>

000023d4 <test_32>:
    23d4:	00000213          	li	s2,0
    23d8:	800000b7          	lui	ra,0x80000
    23dc:	00000013          	nop
    23e0:	00e00113          	li	s0,14
    23e4:	00000013          	nop
    23e8:	4020d1b3          	sra	s1,ra,s0
    23ec:	00120213          	addi	s2,s2,1
    23f0:	00200293          	li	s3,2
    23f4:	fe5212e3          	bne	s2,s3,23d8 <test_32+0x4>
    23f8:	fffe0eb7          	lui	t3,0xfffe0
    23fc:	02000e13          	li	t2,32
    2400:	19d19e63          	bne	s1,t3,259c <fail>

00002404 <test_33>:
    2404:	00000213          	li	s2,0
    2408:	800000b7          	lui	ra,0x80000
    240c:	00000013          	nop
    2410:	00000013          	nop
    2414:	01f00113          	li	s0,31
    2418:	4020d1b3          	sra	s1,ra,s0
    241c:	00120213          	addi	s2,s2,1
    2420:	00200293          	li	s3,2
    2424:	fe5212e3          	bne	s2,s3,2408 <test_33+0x4>
    2428:	fff00e93          	li	t3,-1
    242c:	02100e13          	li	t2,33
    2430:	17d19663          	bne	s1,t3,259c <fail>

00002434 <test_34>:
    2434:	00000213          	li	s2,0
    2438:	00700113          	li	s0,7
    243c:	800000b7          	lui	ra,0x80000
    2440:	4020d1b3          	sra	s1,ra,s0
    2444:	00120213          	addi	s2,s2,1
    2448:	00200293          	li	s3,2
    244c:	fe5216e3          	bne	s2,s3,2438 <test_34+0x4>
    2450:	ff000eb7          	lui	t3,0xff000
    2454:	02200e13          	li	t2,34
    2458:	15d19263          	bne	s1,t3,259c <fail>

0000245c <test_35>:
    245c:	00000213          	li	s2,0
    2460:	00e00113          	li	s0,14
    2464:	800000b7          	lui	ra,0x80000
    2468:	00000013          	nop
    246c:	4020d1b3          	sra	s1,ra,s0
    2470:	00120213          	addi	s2,s2,1
    2474:	00200293          	li	s3,2
    2478:	fe5214e3          	bne	s2,s3,2460 <test_35+0x4>
    247c:	fffe0eb7          	lui	t3,0xfffe0
    2480:	02300e13          	li	t2,35
    2484:	11d19c63          	bne	s1,t3,259c <fail>

00002488 <test_36>:
    2488:	00000213          	li	s2,0
    248c:	01f00113          	li	s0,31
    2490:	800000b7          	lui	ra,0x80000
    2494:	00000013          	nop
    2498:	00000013          	nop
    249c:	4020d1b3          	sra	s1,ra,s0
    24a0:	00120213          	addi	s2,s2,1
    24a4:	00200293          	li	s3,2
    24a8:	fe5212e3          	bne	s2,s3,248c <test_36+0x4>
    24ac:	fff00e93          	li	t3,-1
    24b0:	02400e13          	li	t2,36
    24b4:	0fd19463          	bne	s1,t3,259c <fail>

000024b8 <test_37>:
    24b8:	00000213          	li	s2,0
    24bc:	00700113          	li	s0,7
    24c0:	00000013          	nop
    24c4:	800000b7          	lui	ra,0x80000
    24c8:	4020d1b3          	sra	s1,ra,s0
    24cc:	00120213          	addi	s2,s2,1
    24d0:	00200293          	li	s3,2
    24d4:	fe5214e3          	bne	s2,s3,24bc <test_37+0x4>
    24d8:	ff000eb7          	lui	t3,0xff000
    24dc:	02500e13          	li	t2,37
    24e0:	0bd19e63          	bne	s1,t3,259c <fail>

000024e4 <test_38>:
    24e4:	00000213          	li	s2,0
    24e8:	00e00113          	li	s0,14
    24ec:	00000013          	nop
    24f0:	800000b7          	lui	ra,0x80000
    24f4:	00000013          	nop
    24f8:	4020d1b3          	sra	s1,ra,s0
    24fc:	00120213          	addi	s2,s2,1
    2500:	00200293          	li	s3,2
    2504:	fe5212e3          	bne	s2,s3,24e8 <test_38+0x4>
    2508:	fffe0eb7          	lui	t3,0xfffe0
    250c:	02600e13          	li	t2,38
    2510:	09d19663          	bne	s1,t3,259c <fail>

00002514 <test_39>:
    2514:	00000213          	li	s2,0
    2518:	01f00113          	li	s0,31
    251c:	00000013          	nop
    2520:	00000013          	nop
    2524:	800000b7          	lui	ra,0x80000
    2528:	4020d1b3          	sra	s1,ra,s0
    252c:	00120213          	addi	s2,s2,1
    2530:	00200293          	li	s3,2
    2534:	fe5212e3          	bne	s2,s3,2518 <test_39+0x4>
    2538:	fff00e93          	li	t3,-1
    253c:	02700e13          	li	t2,39
    2540:	05d19e63          	bne	s1,t3,259c <fail>

00002544 <test_40>:
    2544:	00f00093          	li	ra,15
    2548:	40105133          	sra	s0,zero,ra
    254c:	00000e93          	li	t3,0
    2550:	02800e13          	li	t2,40
    2554:	05d11463          	bne	s0,t3,259c <fail>

00002558 <test_41>:
    2558:	02000093          	li	ra,32
    255c:	4000d133          	sra	s0,ra,zero
    2560:	02000e93          	li	t3,32
    2564:	02900e13          	li	t2,41
    2568:	03d11a63          	bne	s0,t3,259c <fail>

0000256c <test_42>:
    256c:	400050b3          	sra	ra,zero,zero
    2570:	00000e93          	li	t3,0
    2574:	02a00e13          	li	t2,42
    2578:	03d09263          	bne	ra,t3,259c <fail>

0000257c <test_43>:
    257c:	40000093          	li	ra,1024
    2580:	00001137          	lui	s0,0x1
    2584:	80010113          	addi	s0,s0,-2048 # 800 <_start-0x1800>
    2588:	4020d033          	sra	zero,ra,s0
    258c:	00000e93          	li	t3,0
    2590:	02b00e13          	li	t2,43
    2594:	01d01463          	bne	zero,t3,259c <fail>
    2598:	01c01c63          	bne	zero,t2,25b0 <pass>

0000259c <fail>:
    259c:	000e0863          	beqz	t2,25ac <fail+0x10>
    25a0:	001e1e13          	slli	t2,t2,0x1
    25a4:	001e6e13          	ori	t2,t2,1
    25a8:	51ee1073          	csrw	tohost,t2
    25ac:	00000063          	b	25ac <fail+0x10>

000025b0 <pass>:
    25b0:	51e0d073          	csrwi	tohost,1
    25b4:	00000063          	b	25b4 <pass+0x4>
    25b8:	00000013          	nop
    25bc:	00000013          	nop
