
rv32ui-p-ori:     file format elf32-littleriscv


Disassembly of section .text:

00002000 <_start>:
    2000:	ff0100b7          	lui	ra,0xff010
    2004:	f0008093          	addi	ra,ra,-256 # ff00ff00 <begin_signature+0xff00dd00>
    2008:	f0f0e193          	ori	s1,ra,-241
    200c:	f0f00e93          	li	t3,-241
    2010:	00200e13          	li	t2,2
    2014:	1dd19463          	bne	s1,t3,21dc <fail>

00002018 <test_3>:
    2018:	0ff010b7          	lui	ra,0xff01
    201c:	ff008093          	addi	ra,ra,-16 # ff00ff0 <begin_signature+0xfefedf0>
    2020:	0f00e193          	ori	s1,ra,240
    2024:	0ff01eb7          	lui	t3,0xff01
    2028:	ff0e8e93          	addi	t3,t3,-16 # ff00ff0 <begin_signature+0xfefedf0>
    202c:	00300e13          	li	t2,3
    2030:	1bd19663          	bne	s1,t3,21dc <fail>

00002034 <test_4>:
    2034:	00ff00b7          	lui	ra,0xff0
    2038:	0ff08093          	addi	ra,ra,255 # ff00ff <begin_signature+0xfedeff>
    203c:	70f0e193          	ori	s1,ra,1807
    2040:	00ff0eb7          	lui	t3,0xff0
    2044:	7ffe8e93          	addi	t3,t3,2047 # ff07ff <begin_signature+0xfee5ff>
    2048:	00400e13          	li	t2,4
    204c:	19d19863          	bne	s1,t3,21dc <fail>

00002050 <test_5>:
    2050:	f00ff0b7          	lui	ra,0xf00ff
    2054:	00f08093          	addi	ra,ra,15 # f00ff00f <begin_signature+0xf00fce0f>
    2058:	0f00e193          	ori	s1,ra,240
    205c:	f00ffeb7          	lui	t3,0xf00ff
    2060:	0ffe8e93          	addi	t3,t3,255 # f00ff0ff <begin_signature+0xf00fceff>
    2064:	00500e13          	li	t2,5
    2068:	17d19a63          	bne	s1,t3,21dc <fail>

0000206c <test_6>:
    206c:	ff0100b7          	lui	ra,0xff010
    2070:	f0008093          	addi	ra,ra,-256 # ff00ff00 <begin_signature+0xff00dd00>
    2074:	0f00e093          	ori	ra,ra,240
    2078:	ff010eb7          	lui	t3,0xff010
    207c:	ff0e8e93          	addi	t3,t3,-16 # ff00fff0 <begin_signature+0xff00ddf0>
    2080:	00600e13          	li	t2,6
    2084:	15d09c63          	bne	ra,t3,21dc <fail>

00002088 <test_7>:
    2088:	00000213          	li	s2,0
    208c:	0ff010b7          	lui	ra,0xff01
    2090:	ff008093          	addi	ra,ra,-16 # ff00ff0 <begin_signature+0xfefedf0>
    2094:	0f00e193          	ori	s1,ra,240
    2098:	00018313          	mv	s4,s1
    209c:	00120213          	addi	s2,s2,1
    20a0:	00200293          	li	s3,2
    20a4:	fe5214e3          	bne	s2,s3,208c <test_7+0x4>
    20a8:	0ff01eb7          	lui	t3,0xff01
    20ac:	ff0e8e93          	addi	t3,t3,-16 # ff00ff0 <begin_signature+0xfefedf0>
    20b0:	00700e13          	li	t2,7
    20b4:	13d31463          	bne	s4,t3,21dc <fail>

000020b8 <test_8>:
    20b8:	00000213          	li	s2,0
    20bc:	00ff00b7          	lui	ra,0xff0
    20c0:	0ff08093          	addi	ra,ra,255 # ff00ff <begin_signature+0xfedeff>
    20c4:	70f0e193          	ori	s1,ra,1807
    20c8:	00000013          	nop
    20cc:	00018313          	mv	s4,s1
    20d0:	00120213          	addi	s2,s2,1
    20d4:	00200293          	li	s3,2
    20d8:	fe5212e3          	bne	s2,s3,20bc <test_8+0x4>
    20dc:	00ff0eb7          	lui	t3,0xff0
    20e0:	7ffe8e93          	addi	t3,t3,2047 # ff07ff <begin_signature+0xfee5ff>
    20e4:	00800e13          	li	t2,8
    20e8:	0fd31a63          	bne	s4,t3,21dc <fail>

000020ec <test_9>:
    20ec:	00000213          	li	s2,0
    20f0:	f00ff0b7          	lui	ra,0xf00ff
    20f4:	00f08093          	addi	ra,ra,15 # f00ff00f <begin_signature+0xf00fce0f>
    20f8:	0f00e193          	ori	s1,ra,240
    20fc:	00000013          	nop
    2100:	00000013          	nop
    2104:	00018313          	mv	s4,s1
    2108:	00120213          	addi	s2,s2,1
    210c:	00200293          	li	s3,2
    2110:	fe5210e3          	bne	s2,s3,20f0 <test_9+0x4>
    2114:	f00ffeb7          	lui	t3,0xf00ff
    2118:	0ffe8e93          	addi	t3,t3,255 # f00ff0ff <begin_signature+0xf00fceff>
    211c:	00900e13          	li	t2,9
    2120:	0bd31e63          	bne	s4,t3,21dc <fail>

00002124 <test_10>:
    2124:	00000213          	li	s2,0
    2128:	0ff010b7          	lui	ra,0xff01
    212c:	ff008093          	addi	ra,ra,-16 # ff00ff0 <begin_signature+0xfefedf0>
    2130:	0f00e193          	ori	s1,ra,240
    2134:	00120213          	addi	s2,s2,1
    2138:	00200293          	li	s3,2
    213c:	fe5216e3          	bne	s2,s3,2128 <test_10+0x4>
    2140:	0ff01eb7          	lui	t3,0xff01
    2144:	ff0e8e93          	addi	t3,t3,-16 # ff00ff0 <begin_signature+0xfefedf0>
    2148:	00a00e13          	li	t2,10
    214c:	09d19863          	bne	s1,t3,21dc <fail>

00002150 <test_11>:
    2150:	00000213          	li	s2,0
    2154:	00ff00b7          	lui	ra,0xff0
    2158:	0ff08093          	addi	ra,ra,255 # ff00ff <begin_signature+0xfedeff>
    215c:	00000013          	nop
    2160:	f0f0e193          	ori	s1,ra,-241
    2164:	00120213          	addi	s2,s2,1
    2168:	00200293          	li	s3,2
    216c:	fe5214e3          	bne	s2,s3,2154 <test_11+0x4>
    2170:	fff00e93          	li	t3,-1
    2174:	00b00e13          	li	t2,11
    2178:	07d19263          	bne	s1,t3,21dc <fail>

0000217c <test_12>:
    217c:	00000213          	li	s2,0
    2180:	f00ff0b7          	lui	ra,0xf00ff
    2184:	00f08093          	addi	ra,ra,15 # f00ff00f <begin_signature+0xf00fce0f>
    2188:	00000013          	nop
    218c:	00000013          	nop
    2190:	0f00e193          	ori	s1,ra,240
    2194:	00120213          	addi	s2,s2,1
    2198:	00200293          	li	s3,2
    219c:	fe5212e3          	bne	s2,s3,2180 <test_12+0x4>
    21a0:	f00ffeb7          	lui	t3,0xf00ff
    21a4:	0ffe8e93          	addi	t3,t3,255 # f00ff0ff <begin_signature+0xf00fceff>
    21a8:	00c00e13          	li	t2,12
    21ac:	03d19863          	bne	s1,t3,21dc <fail>

000021b0 <test_13>:
    21b0:	0f006093          	ori	ra,zero,240
    21b4:	0f000e93          	li	t3,240
    21b8:	00d00e13          	li	t2,13
    21bc:	03d09063          	bne	ra,t3,21dc <fail>

000021c0 <test_14>:
    21c0:	00ff00b7          	lui	ra,0xff0
    21c4:	0ff08093          	addi	ra,ra,255 # ff00ff <begin_signature+0xfedeff>
    21c8:	70f0e013          	ori	zero,ra,1807
    21cc:	00000e93          	li	t3,0
    21d0:	00e00e13          	li	t2,14
    21d4:	01d01463          	bne	zero,t3,21dc <fail>
    21d8:	01c01c63          	bne	zero,t2,21f0 <pass>

000021dc <fail>:
    21dc:	000e0863          	beqz	t2,21ec <fail+0x10>
    21e0:	001e1e13          	slli	t2,t2,0x1
    21e4:	001e6e13          	ori	t2,t2,1
    21e8:	51ee1073          	csrw	tohost,t2
    21ec:	00000063          	b	21ec <fail+0x10>

000021f0 <pass>:
    21f0:	51e0d073          	csrwi	tohost,1
    21f4:	00000063          	b	21f4 <pass+0x4>
    21f8:	00000013          	nop
    21fc:	00000013          	nop
