
rv32ui-p-amominu_w:     file format elf32-littleriscv


Disassembly of section .text:

00002000 <_start>:
    2000:	80000937          	lui	a0,0x80000
    2004:	80000993          	li	a1,-2048
    2008:	00000a97          	auipc	a3,0x0
    200c:	078a8a93          	addi	a3,a3,120 # 2080 <begin_signature>
    2010:	012aa023          	sw	a0,0(a3)
    2014:	c13aab2f          	amominu.w	a4,a1,(a3)
    2018:	80000eb7          	lui	t3,0x80000
    201c:	00200e13          	li	t2,2
    2020:	05db1063          	bne	a4,t3,2060 <fail>

00002024 <test_3>:
    2024:	000aab83          	lw	a5,0(a3)
    2028:	80000eb7          	lui	t3,0x80000
    202c:	00300e13          	li	t2,3
    2030:	03db9863          	bne	a5,t3,2060 <fail>

00002034 <test_4>:
    2034:	fff00993          	li	a1,-1
    2038:	000aa023          	sw	zero,0(a3)
    203c:	c13aab2f          	amominu.w	a4,a1,(a3)
    2040:	00000e93          	li	t3,0
    2044:	00400e13          	li	t2,4
    2048:	01db1c63          	bne	a4,t3,2060 <fail>

0000204c <test_5>:
    204c:	000aab83          	lw	a5,0(a3)
    2050:	00000e93          	li	t3,0
    2054:	00500e13          	li	t2,5
    2058:	01db9463          	bne	a5,t3,2060 <fail>
    205c:	01c01c63          	bne	zero,t2,2074 <pass>

00002060 <fail>:
    2060:	000e0863          	beqz	t2,2070 <fail+0x10>
    2064:	001e1e13          	slli	t2,t2,0x1
    2068:	001e6e13          	ori	t2,t2,1
    206c:	51ee1073          	csrw	tohost,t2
    2070:	00000063          	b	2070 <fail+0x10>

00002074 <pass>:
    2074:	51e0d073          	csrwi	tohost,1
    2078:	00000063          	b	2078 <pass+0x4>
    207c:	00000013          	nop
