
rv32ui-p-srai:     file format elf32-littleriscv


Disassembly of section .text:

00002000 <_start>:
    2000:	00000093          	li	ra,0
    2004:	4000d193          	srai	s1,ra,0x0
    2008:	00000e93          	li	t3,0
    200c:	00200e13          	li	t2,2
    2010:	2bd19463          	bne	s1,t3,22b8 <fail>

00002014 <test_3>:
    2014:	800000b7          	lui	ra,0x80000
    2018:	4010d193          	srai	s1,ra,0x1
    201c:	c0000eb7          	lui	t3,0xc0000
    2020:	00300e13          	li	t2,3
    2024:	29d19a63          	bne	s1,t3,22b8 <fail>

00002028 <test_4>:
    2028:	800000b7          	lui	ra,0x80000
    202c:	4070d193          	srai	s1,ra,0x7
    2030:	ff000eb7          	lui	t3,0xff000
    2034:	00400e13          	li	t2,4
    2038:	29d19063          	bne	s1,t3,22b8 <fail>

0000203c <test_5>:
    203c:	800000b7          	lui	ra,0x80000
    2040:	40e0d193          	srai	s1,ra,0xe
    2044:	fffe0eb7          	lui	t3,0xfffe0
    2048:	00500e13          	li	t2,5
    204c:	27d19663          	bne	s1,t3,22b8 <fail>

00002050 <test_6>:
    2050:	800000b7          	lui	ra,0x80000
    2054:	00108093          	addi	ra,ra,1 # 80000001 <begin_signature+0x7fffdd21>
    2058:	41f0d193          	srai	s1,ra,0x1f
    205c:	fff00e93          	li	t3,-1
    2060:	00600e13          	li	t2,6
    2064:	25d19a63          	bne	s1,t3,22b8 <fail>

00002068 <test_7>:
    2068:	800000b7          	lui	ra,0x80000
    206c:	fff08093          	addi	ra,ra,-1 # 7fffffff <begin_signature+0x7fffdd1f>
    2070:	4000d193          	srai	s1,ra,0x0
    2074:	80000eb7          	lui	t3,0x80000
    2078:	fffe8e93          	addi	t3,t3,-1 # 7fffffff <begin_signature+0x7fffdd1f>
    207c:	00700e13          	li	t2,7
    2080:	23d19c63          	bne	s1,t3,22b8 <fail>

00002084 <test_8>:
    2084:	800000b7          	lui	ra,0x80000
    2088:	fff08093          	addi	ra,ra,-1 # 7fffffff <begin_signature+0x7fffdd1f>
    208c:	4010d193          	srai	s1,ra,0x1
    2090:	40000eb7          	lui	t3,0x40000
    2094:	fffe8e93          	addi	t3,t3,-1 # 3fffffff <begin_signature+0x3fffdd1f>
    2098:	00800e13          	li	t2,8
    209c:	21d19e63          	bne	s1,t3,22b8 <fail>

000020a0 <test_9>:
    20a0:	800000b7          	lui	ra,0x80000
    20a4:	fff08093          	addi	ra,ra,-1 # 7fffffff <begin_signature+0x7fffdd1f>
    20a8:	4070d193          	srai	s1,ra,0x7
    20ac:	01000eb7          	lui	t3,0x1000
    20b0:	fffe8e93          	addi	t3,t3,-1 # ffffff <begin_signature+0xffdd1f>
    20b4:	00900e13          	li	t2,9
    20b8:	21d19063          	bne	s1,t3,22b8 <fail>

000020bc <test_10>:
    20bc:	800000b7          	lui	ra,0x80000
    20c0:	fff08093          	addi	ra,ra,-1 # 7fffffff <begin_signature+0x7fffdd1f>
    20c4:	40e0d193          	srai	s1,ra,0xe
    20c8:	00020eb7          	lui	t3,0x20
    20cc:	fffe8e93          	addi	t3,t3,-1 # 1ffff <begin_signature+0x1dd1f>
    20d0:	00a00e13          	li	t2,10
    20d4:	1fd19263          	bne	s1,t3,22b8 <fail>

000020d8 <test_11>:
    20d8:	800000b7          	lui	ra,0x80000
    20dc:	fff08093          	addi	ra,ra,-1 # 7fffffff <begin_signature+0x7fffdd1f>
    20e0:	41f0d193          	srai	s1,ra,0x1f
    20e4:	00000e93          	li	t3,0
    20e8:	00b00e13          	li	t2,11
    20ec:	1dd19663          	bne	s1,t3,22b8 <fail>

000020f0 <test_12>:
    20f0:	818180b7          	lui	ra,0x81818
    20f4:	18108093          	addi	ra,ra,385 # 81818181 <begin_signature+0x81815ea1>
    20f8:	4000d193          	srai	s1,ra,0x0
    20fc:	81818eb7          	lui	t3,0x81818
    2100:	181e8e93          	addi	t3,t3,385 # 81818181 <begin_signature+0x81815ea1>
    2104:	00c00e13          	li	t2,12
    2108:	1bd19863          	bne	s1,t3,22b8 <fail>

0000210c <test_13>:
    210c:	818180b7          	lui	ra,0x81818
    2110:	18108093          	addi	ra,ra,385 # 81818181 <begin_signature+0x81815ea1>
    2114:	4010d193          	srai	s1,ra,0x1
    2118:	c0c0ceb7          	lui	t3,0xc0c0c
    211c:	0c0e8e93          	addi	t3,t3,192 # c0c0c0c0 <begin_signature+0xc0c09de0>
    2120:	00d00e13          	li	t2,13
    2124:	19d19a63          	bne	s1,t3,22b8 <fail>

00002128 <test_14>:
    2128:	818180b7          	lui	ra,0x81818
    212c:	18108093          	addi	ra,ra,385 # 81818181 <begin_signature+0x81815ea1>
    2130:	4070d193          	srai	s1,ra,0x7
    2134:	ff030eb7          	lui	t3,0xff030
    2138:	303e8e93          	addi	t3,t3,771 # ff030303 <begin_signature+0xff02e023>
    213c:	00e00e13          	li	t2,14
    2140:	17d19c63          	bne	s1,t3,22b8 <fail>

00002144 <test_15>:
    2144:	818180b7          	lui	ra,0x81818
    2148:	18108093          	addi	ra,ra,385 # 81818181 <begin_signature+0x81815ea1>
    214c:	40e0d193          	srai	s1,ra,0xe
    2150:	fffe0eb7          	lui	t3,0xfffe0
    2154:	606e8e93          	addi	t3,t3,1542 # fffe0606 <begin_signature+0xfffde326>
    2158:	00f00e13          	li	t2,15
    215c:	15d19e63          	bne	s1,t3,22b8 <fail>

00002160 <test_16>:
    2160:	818180b7          	lui	ra,0x81818
    2164:	18108093          	addi	ra,ra,385 # 81818181 <begin_signature+0x81815ea1>
    2168:	41f0d193          	srai	s1,ra,0x1f
    216c:	fff00e93          	li	t3,-1
    2170:	01000e13          	li	t2,16
    2174:	15d19263          	bne	s1,t3,22b8 <fail>

00002178 <test_17>:
    2178:	800000b7          	lui	ra,0x80000
    217c:	4070d093          	srai	ra,ra,0x7
    2180:	ff000eb7          	lui	t3,0xff000
    2184:	01100e13          	li	t2,17
    2188:	13d09863          	bne	ra,t3,22b8 <fail>

0000218c <test_18>:
    218c:	00000213          	li	s2,0
    2190:	800000b7          	lui	ra,0x80000
    2194:	4070d193          	srai	s1,ra,0x7
    2198:	00018313          	mv	s4,s1
    219c:	00120213          	addi	s2,s2,1
    21a0:	00200293          	li	s3,2
    21a4:	fe5216e3          	bne	s2,s3,2190 <test_18+0x4>
    21a8:	ff000eb7          	lui	t3,0xff000
    21ac:	01200e13          	li	t2,18
    21b0:	11d31463          	bne	s4,t3,22b8 <fail>

000021b4 <test_19>:
    21b4:	00000213          	li	s2,0
    21b8:	800000b7          	lui	ra,0x80000
    21bc:	40e0d193          	srai	s1,ra,0xe
    21c0:	00000013          	nop
    21c4:	00018313          	mv	s4,s1
    21c8:	00120213          	addi	s2,s2,1
    21cc:	00200293          	li	s3,2
    21d0:	fe5214e3          	bne	s2,s3,21b8 <test_19+0x4>
    21d4:	fffe0eb7          	lui	t3,0xfffe0
    21d8:	01300e13          	li	t2,19
    21dc:	0dd31e63          	bne	s4,t3,22b8 <fail>

000021e0 <test_20>:
    21e0:	00000213          	li	s2,0
    21e4:	800000b7          	lui	ra,0x80000
    21e8:	00108093          	addi	ra,ra,1 # 80000001 <begin_signature+0x7fffdd21>
    21ec:	41f0d193          	srai	s1,ra,0x1f
    21f0:	00000013          	nop
    21f4:	00000013          	nop
    21f8:	00018313          	mv	s4,s1
    21fc:	00120213          	addi	s2,s2,1
    2200:	00200293          	li	s3,2
    2204:	fe5210e3          	bne	s2,s3,21e4 <test_20+0x4>
    2208:	fff00e93          	li	t3,-1
    220c:	01400e13          	li	t2,20
    2210:	0bd31463          	bne	s4,t3,22b8 <fail>

00002214 <test_21>:
    2214:	00000213          	li	s2,0
    2218:	800000b7          	lui	ra,0x80000
    221c:	4070d193          	srai	s1,ra,0x7
    2220:	00120213          	addi	s2,s2,1
    2224:	00200293          	li	s3,2
    2228:	fe5218e3          	bne	s2,s3,2218 <test_21+0x4>
    222c:	ff000eb7          	lui	t3,0xff000
    2230:	01500e13          	li	t2,21
    2234:	09d19263          	bne	s1,t3,22b8 <fail>

00002238 <test_22>:
    2238:	00000213          	li	s2,0
    223c:	800000b7          	lui	ra,0x80000
    2240:	00000013          	nop
    2244:	40e0d193          	srai	s1,ra,0xe
    2248:	00120213          	addi	s2,s2,1
    224c:	00200293          	li	s3,2
    2250:	fe5216e3          	bne	s2,s3,223c <test_22+0x4>
    2254:	fffe0eb7          	lui	t3,0xfffe0
    2258:	01600e13          	li	t2,22
    225c:	05d19e63          	bne	s1,t3,22b8 <fail>

00002260 <test_23>:
    2260:	00000213          	li	s2,0
    2264:	800000b7          	lui	ra,0x80000
    2268:	00108093          	addi	ra,ra,1 # 80000001 <begin_signature+0x7fffdd21>
    226c:	00000013          	nop
    2270:	00000013          	nop
    2274:	41f0d193          	srai	s1,ra,0x1f
    2278:	00120213          	addi	s2,s2,1
    227c:	00200293          	li	s3,2
    2280:	fe5212e3          	bne	s2,s3,2264 <test_23+0x4>
    2284:	fff00e93          	li	t3,-1
    2288:	01700e13          	li	t2,23
    228c:	03d19663          	bne	s1,t3,22b8 <fail>

00002290 <test_24>:
    2290:	41f05093          	srai	ra,zero,0x1f
    2294:	00000e93          	li	t3,0
    2298:	01800e13          	li	t2,24
    229c:	01d09e63          	bne	ra,t3,22b8 <fail>

000022a0 <test_25>:
    22a0:	02100093          	li	ra,33
    22a4:	4140d013          	srai	zero,ra,0x14
    22a8:	00000e93          	li	t3,0
    22ac:	01900e13          	li	t2,25
    22b0:	01d01463          	bne	zero,t3,22b8 <fail>
    22b4:	01c01c63          	bne	zero,t2,22cc <pass>

000022b8 <fail>:
    22b8:	000e0863          	beqz	t2,22c8 <fail+0x10>
    22bc:	001e1e13          	slli	t2,t2,0x1
    22c0:	001e6e13          	ori	t2,t2,1
    22c4:	51ee1073          	csrw	tohost,t2
    22c8:	00000063          	b	22c8 <fail+0x10>

000022cc <pass>:
    22cc:	51e0d073          	csrwi	tohost,1
    22d0:	00000063          	b	22d0 <pass+0x4>
    22d4:	00000013          	nop
    22d8:	00000013          	nop
    22dc:	00000013          	nop
