
rv32ui-p-bgeu:     file format elf32-littleriscv


Disassembly of section .text:

00002000 <_start>:
    2000:	00200e13          	li	t2,2
    2004:	00000093          	li	ra,0
    2008:	00000113          	li	s0,0
    200c:	0020f663          	bleu	s0,ra,2018 <_start+0x18>
    2010:	35c01263          	bne	zero,t2,2354 <fail>
    2014:	01c01663          	bne	zero,t2,2020 <test_3>
    2018:	fe20fee3          	bleu	s0,ra,2014 <_start+0x14>
    201c:	33c01c63          	bne	zero,t2,2354 <fail>

00002020 <test_3>:
    2020:	00300e13          	li	t2,3
    2024:	00100093          	li	ra,1
    2028:	00100113          	li	s0,1
    202c:	0020f663          	bleu	s0,ra,2038 <test_3+0x18>
    2030:	33c01263          	bne	zero,t2,2354 <fail>
    2034:	01c01663          	bne	zero,t2,2040 <test_4>
    2038:	fe20fee3          	bleu	s0,ra,2034 <test_3+0x14>
    203c:	31c01c63          	bne	zero,t2,2354 <fail>

00002040 <test_4>:
    2040:	00400e13          	li	t2,4
    2044:	fff00093          	li	ra,-1
    2048:	fff00113          	li	s0,-1
    204c:	0020f663          	bleu	s0,ra,2058 <test_4+0x18>
    2050:	31c01263          	bne	zero,t2,2354 <fail>
    2054:	01c01663          	bne	zero,t2,2060 <test_5>
    2058:	fe20fee3          	bleu	s0,ra,2054 <test_4+0x14>
    205c:	2fc01c63          	bne	zero,t2,2354 <fail>

00002060 <test_5>:
    2060:	00500e13          	li	t2,5
    2064:	00100093          	li	ra,1
    2068:	00000113          	li	s0,0
    206c:	0020f663          	bleu	s0,ra,2078 <test_5+0x18>
    2070:	2fc01263          	bne	zero,t2,2354 <fail>
    2074:	01c01663          	bne	zero,t2,2080 <test_6>
    2078:	fe20fee3          	bleu	s0,ra,2074 <test_5+0x14>
    207c:	2dc01c63          	bne	zero,t2,2354 <fail>

00002080 <test_6>:
    2080:	00600e13          	li	t2,6
    2084:	fff00093          	li	ra,-1
    2088:	ffe00113          	li	s0,-2
    208c:	0020f663          	bleu	s0,ra,2098 <test_6+0x18>
    2090:	2dc01263          	bne	zero,t2,2354 <fail>
    2094:	01c01663          	bne	zero,t2,20a0 <test_7>
    2098:	fe20fee3          	bleu	s0,ra,2094 <test_6+0x14>
    209c:	2bc01c63          	bne	zero,t2,2354 <fail>

000020a0 <test_7>:
    20a0:	00700e13          	li	t2,7
    20a4:	fff00093          	li	ra,-1
    20a8:	00000113          	li	s0,0
    20ac:	0020f663          	bleu	s0,ra,20b8 <test_7+0x18>
    20b0:	2bc01263          	bne	zero,t2,2354 <fail>
    20b4:	01c01663          	bne	zero,t2,20c0 <test_8>
    20b8:	fe20fee3          	bleu	s0,ra,20b4 <test_7+0x14>
    20bc:	29c01c63          	bne	zero,t2,2354 <fail>

000020c0 <test_8>:
    20c0:	00800e13          	li	t2,8
    20c4:	00000093          	li	ra,0
    20c8:	00100113          	li	s0,1
    20cc:	0020f463          	bleu	s0,ra,20d4 <test_8+0x14>
    20d0:	01c01463          	bne	zero,t2,20d8 <test_8+0x18>
    20d4:	29c01063          	bne	zero,t2,2354 <fail>
    20d8:	fe20fee3          	bleu	s0,ra,20d4 <test_8+0x14>

000020dc <test_9>:
    20dc:	00900e13          	li	t2,9
    20e0:	ffe00093          	li	ra,-2
    20e4:	fff00113          	li	s0,-1
    20e8:	0020f463          	bleu	s0,ra,20f0 <test_9+0x14>
    20ec:	01c01463          	bne	zero,t2,20f4 <test_9+0x18>
    20f0:	27c01263          	bne	zero,t2,2354 <fail>
    20f4:	fe20fee3          	bleu	s0,ra,20f0 <test_9+0x14>

000020f8 <test_10>:
    20f8:	00a00e13          	li	t2,10
    20fc:	00000093          	li	ra,0
    2100:	fff00113          	li	s0,-1
    2104:	0020f463          	bleu	s0,ra,210c <test_10+0x14>
    2108:	01c01463          	bne	zero,t2,2110 <test_10+0x18>
    210c:	25c01463          	bne	zero,t2,2354 <fail>
    2110:	fe20fee3          	bleu	s0,ra,210c <test_10+0x14>

00002114 <test_11>:
    2114:	00b00e13          	li	t2,11
    2118:	800000b7          	lui	ra,0x80000
    211c:	fff08093          	addi	ra,ra,-1 # 7fffffff <begin_signature+0x7fffdc8f>
    2120:	80000137          	lui	s0,0x80000
    2124:	0020f463          	bleu	s0,ra,212c <test_11+0x18>
    2128:	01c01463          	bne	zero,t2,2130 <test_11+0x1c>
    212c:	23c01463          	bne	zero,t2,2354 <fail>
    2130:	fe20fee3          	bleu	s0,ra,212c <test_11+0x18>

00002134 <test_12>:
    2134:	00c00e13          	li	t2,12
    2138:	00000213          	li	s2,0
    213c:	f00000b7          	lui	ra,0xf0000
    2140:	fff08093          	addi	ra,ra,-1 # efffffff <begin_signature+0xefffdc8f>
    2144:	f0000137          	lui	s0,0xf0000
    2148:	2020f663          	bleu	s0,ra,2354 <fail>
    214c:	00120213          	addi	s2,s2,1
    2150:	00200293          	li	s3,2
    2154:	fe5214e3          	bne	s2,s3,213c <test_12+0x8>

00002158 <test_13>:
    2158:	00d00e13          	li	t2,13
    215c:	00000213          	li	s2,0
    2160:	f00000b7          	lui	ra,0xf0000
    2164:	fff08093          	addi	ra,ra,-1 # efffffff <begin_signature+0xefffdc8f>
    2168:	f0000137          	lui	s0,0xf0000
    216c:	00000013          	nop
    2170:	1e20f263          	bleu	s0,ra,2354 <fail>
    2174:	00120213          	addi	s2,s2,1
    2178:	00200293          	li	s3,2
    217c:	fe5212e3          	bne	s2,s3,2160 <test_13+0x8>

00002180 <test_14>:
    2180:	00e00e13          	li	t2,14
    2184:	00000213          	li	s2,0
    2188:	f00000b7          	lui	ra,0xf0000
    218c:	fff08093          	addi	ra,ra,-1 # efffffff <begin_signature+0xefffdc8f>
    2190:	f0000137          	lui	s0,0xf0000
    2194:	00000013          	nop
    2198:	00000013          	nop
    219c:	1a20fc63          	bleu	s0,ra,2354 <fail>
    21a0:	00120213          	addi	s2,s2,1
    21a4:	00200293          	li	s3,2
    21a8:	fe5210e3          	bne	s2,s3,2188 <test_14+0x8>

000021ac <test_15>:
    21ac:	00f00e13          	li	t2,15
    21b0:	00000213          	li	s2,0
    21b4:	f00000b7          	lui	ra,0xf0000
    21b8:	fff08093          	addi	ra,ra,-1 # efffffff <begin_signature+0xefffdc8f>
    21bc:	00000013          	nop
    21c0:	f0000137          	lui	s0,0xf0000
    21c4:	1820f863          	bleu	s0,ra,2354 <fail>
    21c8:	00120213          	addi	s2,s2,1
    21cc:	00200293          	li	s3,2
    21d0:	fe5212e3          	bne	s2,s3,21b4 <test_15+0x8>

000021d4 <test_16>:
    21d4:	01000e13          	li	t2,16
    21d8:	00000213          	li	s2,0
    21dc:	f00000b7          	lui	ra,0xf0000
    21e0:	fff08093          	addi	ra,ra,-1 # efffffff <begin_signature+0xefffdc8f>
    21e4:	00000013          	nop
    21e8:	f0000137          	lui	s0,0xf0000
    21ec:	00000013          	nop
    21f0:	1620f263          	bleu	s0,ra,2354 <fail>
    21f4:	00120213          	addi	s2,s2,1
    21f8:	00200293          	li	s3,2
    21fc:	fe5210e3          	bne	s2,s3,21dc <test_16+0x8>

00002200 <test_17>:
    2200:	01100e13          	li	t2,17
    2204:	00000213          	li	s2,0
    2208:	f00000b7          	lui	ra,0xf0000
    220c:	fff08093          	addi	ra,ra,-1 # efffffff <begin_signature+0xefffdc8f>
    2210:	00000013          	nop
    2214:	00000013          	nop
    2218:	f0000137          	lui	s0,0xf0000
    221c:	1220fc63          	bleu	s0,ra,2354 <fail>
    2220:	00120213          	addi	s2,s2,1
    2224:	00200293          	li	s3,2
    2228:	fe5210e3          	bne	s2,s3,2208 <test_17+0x8>

0000222c <test_18>:
    222c:	01200e13          	li	t2,18
    2230:	00000213          	li	s2,0
    2234:	f00000b7          	lui	ra,0xf0000
    2238:	fff08093          	addi	ra,ra,-1 # efffffff <begin_signature+0xefffdc8f>
    223c:	f0000137          	lui	s0,0xf0000
    2240:	1020fa63          	bleu	s0,ra,2354 <fail>
    2244:	00120213          	addi	s2,s2,1
    2248:	00200293          	li	s3,2
    224c:	fe5214e3          	bne	s2,s3,2234 <test_18+0x8>

00002250 <test_19>:
    2250:	01300e13          	li	t2,19
    2254:	00000213          	li	s2,0
    2258:	f00000b7          	lui	ra,0xf0000
    225c:	fff08093          	addi	ra,ra,-1 # efffffff <begin_signature+0xefffdc8f>
    2260:	f0000137          	lui	s0,0xf0000
    2264:	00000013          	nop
    2268:	0e20f663          	bleu	s0,ra,2354 <fail>
    226c:	00120213          	addi	s2,s2,1
    2270:	00200293          	li	s3,2
    2274:	fe5212e3          	bne	s2,s3,2258 <test_19+0x8>

00002278 <test_20>:
    2278:	01400e13          	li	t2,20
    227c:	00000213          	li	s2,0
    2280:	f00000b7          	lui	ra,0xf0000
    2284:	fff08093          	addi	ra,ra,-1 # efffffff <begin_signature+0xefffdc8f>
    2288:	f0000137          	lui	s0,0xf0000
    228c:	00000013          	nop
    2290:	00000013          	nop
    2294:	0c20f063          	bleu	s0,ra,2354 <fail>
    2298:	00120213          	addi	s2,s2,1
    229c:	00200293          	li	s3,2
    22a0:	fe5210e3          	bne	s2,s3,2280 <test_20+0x8>

000022a4 <test_21>:
    22a4:	01500e13          	li	t2,21
    22a8:	00000213          	li	s2,0
    22ac:	f00000b7          	lui	ra,0xf0000
    22b0:	fff08093          	addi	ra,ra,-1 # efffffff <begin_signature+0xefffdc8f>
    22b4:	00000013          	nop
    22b8:	f0000137          	lui	s0,0xf0000
    22bc:	0820fc63          	bleu	s0,ra,2354 <fail>
    22c0:	00120213          	addi	s2,s2,1
    22c4:	00200293          	li	s3,2
    22c8:	fe5212e3          	bne	s2,s3,22ac <test_21+0x8>

000022cc <test_22>:
    22cc:	01600e13          	li	t2,22
    22d0:	00000213          	li	s2,0
    22d4:	f00000b7          	lui	ra,0xf0000
    22d8:	fff08093          	addi	ra,ra,-1 # efffffff <begin_signature+0xefffdc8f>
    22dc:	00000013          	nop
    22e0:	f0000137          	lui	s0,0xf0000
    22e4:	00000013          	nop
    22e8:	0620f663          	bleu	s0,ra,2354 <fail>
    22ec:	00120213          	addi	s2,s2,1
    22f0:	00200293          	li	s3,2
    22f4:	fe5210e3          	bne	s2,s3,22d4 <test_22+0x8>

000022f8 <test_23>:
    22f8:	01700e13          	li	t2,23
    22fc:	00000213          	li	s2,0
    2300:	f00000b7          	lui	ra,0xf0000
    2304:	fff08093          	addi	ra,ra,-1 # efffffff <begin_signature+0xefffdc8f>
    2308:	00000013          	nop
    230c:	00000013          	nop
    2310:	f0000137          	lui	s0,0xf0000
    2314:	0420f063          	bleu	s0,ra,2354 <fail>
    2318:	00120213          	addi	s2,s2,1
    231c:	00200293          	li	s3,2
    2320:	fe5210e3          	bne	s2,s3,2300 <test_23+0x8>

00002324 <test_24>:
    2324:	00100093          	li	ra,1
    2328:	0000fa63          	bleu	zero,ra,233c <test_24+0x18>
    232c:	00108093          	addi	ra,ra,1
    2330:	00108093          	addi	ra,ra,1
    2334:	00108093          	addi	ra,ra,1
    2338:	00108093          	addi	ra,ra,1
    233c:	00108093          	addi	ra,ra,1
    2340:	00108093          	addi	ra,ra,1
    2344:	00300e93          	li	t3,3
    2348:	01800e13          	li	t2,24
    234c:	01d09463          	bne	ra,t3,2354 <fail>
    2350:	01c01c63          	bne	zero,t2,2368 <pass>

00002354 <fail>:
    2354:	000e0863          	beqz	t2,2364 <fail+0x10>
    2358:	001e1e13          	slli	t2,t2,0x1
    235c:	001e6e13          	ori	t2,t2,1
    2360:	51ee1073          	csrw	tohost,t2
    2364:	00000063          	b	2364 <fail+0x10>

00002368 <pass>:
    2368:	51e0d073          	csrwi	tohost,1
    236c:	00000063          	b	236c <pass+0x4>
