
rv32ui-p-beq:     file format elf32-littleriscv


Disassembly of section .text:

00002000 <_start>:
    2000:	00200e13          	li	t2,2
    2004:	00000093          	li	ra,0
    2008:	00000113          	li	s0,0
    200c:	00208663          	beq	ra,s0,2018 <_start+0x18>
    2010:	2bc01863          	bne	zero,t2,22c0 <fail>
    2014:	01c01663          	bne	zero,t2,2020 <test_3>
    2018:	fe208ee3          	beq	ra,s0,2014 <_start+0x14>
    201c:	2bc01263          	bne	zero,t2,22c0 <fail>

00002020 <test_3>:
    2020:	00300e13          	li	t2,3
    2024:	00100093          	li	ra,1
    2028:	00100113          	li	s0,1
    202c:	00208663          	beq	ra,s0,2038 <test_3+0x18>
    2030:	29c01863          	bne	zero,t2,22c0 <fail>
    2034:	01c01663          	bne	zero,t2,2040 <test_4>
    2038:	fe208ee3          	beq	ra,s0,2034 <test_3+0x14>
    203c:	29c01263          	bne	zero,t2,22c0 <fail>

00002040 <test_4>:
    2040:	00400e13          	li	t2,4
    2044:	fff00093          	li	ra,-1
    2048:	fff00113          	li	s0,-1
    204c:	00208663          	beq	ra,s0,2058 <test_4+0x18>
    2050:	27c01863          	bne	zero,t2,22c0 <fail>
    2054:	01c01663          	bne	zero,t2,2060 <test_5>
    2058:	fe208ee3          	beq	ra,s0,2054 <test_4+0x14>
    205c:	27c01263          	bne	zero,t2,22c0 <fail>

00002060 <test_5>:
    2060:	00500e13          	li	t2,5
    2064:	00000093          	li	ra,0
    2068:	00100113          	li	s0,1
    206c:	00208463          	beq	ra,s0,2074 <test_5+0x14>
    2070:	01c01463          	bne	zero,t2,2078 <test_5+0x18>
    2074:	25c01663          	bne	zero,t2,22c0 <fail>
    2078:	fe208ee3          	beq	ra,s0,2074 <test_5+0x14>

0000207c <test_6>:
    207c:	00600e13          	li	t2,6
    2080:	00100093          	li	ra,1
    2084:	00000113          	li	s0,0
    2088:	00208463          	beq	ra,s0,2090 <test_6+0x14>
    208c:	01c01463          	bne	zero,t2,2094 <test_6+0x18>
    2090:	23c01863          	bne	zero,t2,22c0 <fail>
    2094:	fe208ee3          	beq	ra,s0,2090 <test_6+0x14>

00002098 <test_7>:
    2098:	00700e13          	li	t2,7
    209c:	fff00093          	li	ra,-1
    20a0:	00100113          	li	s0,1
    20a4:	00208463          	beq	ra,s0,20ac <test_7+0x14>
    20a8:	01c01463          	bne	zero,t2,20b0 <test_7+0x18>
    20ac:	21c01a63          	bne	zero,t2,22c0 <fail>
    20b0:	fe208ee3          	beq	ra,s0,20ac <test_7+0x14>

000020b4 <test_8>:
    20b4:	00800e13          	li	t2,8
    20b8:	00100093          	li	ra,1
    20bc:	fff00113          	li	s0,-1
    20c0:	00208463          	beq	ra,s0,20c8 <test_8+0x14>
    20c4:	01c01463          	bne	zero,t2,20cc <test_8+0x18>
    20c8:	1fc01c63          	bne	zero,t2,22c0 <fail>
    20cc:	fe208ee3          	beq	ra,s0,20c8 <test_8+0x14>

000020d0 <test_9>:
    20d0:	00900e13          	li	t2,9
    20d4:	00000213          	li	s2,0
    20d8:	00000093          	li	ra,0
    20dc:	fff00113          	li	s0,-1
    20e0:	1e208063          	beq	ra,s0,22c0 <fail>
    20e4:	00120213          	addi	s2,s2,1
    20e8:	00200293          	li	s3,2
    20ec:	fe5216e3          	bne	s2,s3,20d8 <test_9+0x8>

000020f0 <test_10>:
    20f0:	00a00e13          	li	t2,10
    20f4:	00000213          	li	s2,0
    20f8:	00000093          	li	ra,0
    20fc:	fff00113          	li	s0,-1
    2100:	00000013          	nop
    2104:	1a208e63          	beq	ra,s0,22c0 <fail>
    2108:	00120213          	addi	s2,s2,1
    210c:	00200293          	li	s3,2
    2110:	fe5214e3          	bne	s2,s3,20f8 <test_10+0x8>

00002114 <test_11>:
    2114:	00b00e13          	li	t2,11
    2118:	00000213          	li	s2,0
    211c:	00000093          	li	ra,0
    2120:	fff00113          	li	s0,-1
    2124:	00000013          	nop
    2128:	00000013          	nop
    212c:	18208a63          	beq	ra,s0,22c0 <fail>
    2130:	00120213          	addi	s2,s2,1
    2134:	00200293          	li	s3,2
    2138:	fe5212e3          	bne	s2,s3,211c <test_11+0x8>

0000213c <test_12>:
    213c:	00c00e13          	li	t2,12
    2140:	00000213          	li	s2,0
    2144:	00000093          	li	ra,0
    2148:	00000013          	nop
    214c:	fff00113          	li	s0,-1
    2150:	16208863          	beq	ra,s0,22c0 <fail>
    2154:	00120213          	addi	s2,s2,1
    2158:	00200293          	li	s3,2
    215c:	fe5214e3          	bne	s2,s3,2144 <test_12+0x8>

00002160 <test_13>:
    2160:	00d00e13          	li	t2,13
    2164:	00000213          	li	s2,0
    2168:	00000093          	li	ra,0
    216c:	00000013          	nop
    2170:	fff00113          	li	s0,-1
    2174:	00000013          	nop
    2178:	14208463          	beq	ra,s0,22c0 <fail>
    217c:	00120213          	addi	s2,s2,1
    2180:	00200293          	li	s3,2
    2184:	fe5212e3          	bne	s2,s3,2168 <test_13+0x8>

00002188 <test_14>:
    2188:	00e00e13          	li	t2,14
    218c:	00000213          	li	s2,0
    2190:	00000093          	li	ra,0
    2194:	00000013          	nop
    2198:	00000013          	nop
    219c:	fff00113          	li	s0,-1
    21a0:	12208063          	beq	ra,s0,22c0 <fail>
    21a4:	00120213          	addi	s2,s2,1
    21a8:	00200293          	li	s3,2
    21ac:	fe5212e3          	bne	s2,s3,2190 <test_14+0x8>

000021b0 <test_15>:
    21b0:	00f00e13          	li	t2,15
    21b4:	00000213          	li	s2,0
    21b8:	00000093          	li	ra,0
    21bc:	fff00113          	li	s0,-1
    21c0:	10208063          	beq	ra,s0,22c0 <fail>
    21c4:	00120213          	addi	s2,s2,1
    21c8:	00200293          	li	s3,2
    21cc:	fe5216e3          	bne	s2,s3,21b8 <test_15+0x8>

000021d0 <test_16>:
    21d0:	01000e13          	li	t2,16
    21d4:	00000213          	li	s2,0
    21d8:	00000093          	li	ra,0
    21dc:	fff00113          	li	s0,-1
    21e0:	00000013          	nop
    21e4:	0c208e63          	beq	ra,s0,22c0 <fail>
    21e8:	00120213          	addi	s2,s2,1
    21ec:	00200293          	li	s3,2
    21f0:	fe5214e3          	bne	s2,s3,21d8 <test_16+0x8>

000021f4 <test_17>:
    21f4:	01100e13          	li	t2,17
    21f8:	00000213          	li	s2,0
    21fc:	00000093          	li	ra,0
    2200:	fff00113          	li	s0,-1
    2204:	00000013          	nop
    2208:	00000013          	nop
    220c:	0a208a63          	beq	ra,s0,22c0 <fail>
    2210:	00120213          	addi	s2,s2,1
    2214:	00200293          	li	s3,2
    2218:	fe5212e3          	bne	s2,s3,21fc <test_17+0x8>

0000221c <test_18>:
    221c:	01200e13          	li	t2,18
    2220:	00000213          	li	s2,0
    2224:	00000093          	li	ra,0
    2228:	00000013          	nop
    222c:	fff00113          	li	s0,-1
    2230:	08208863          	beq	ra,s0,22c0 <fail>
    2234:	00120213          	addi	s2,s2,1
    2238:	00200293          	li	s3,2
    223c:	fe5214e3          	bne	s2,s3,2224 <test_18+0x8>

00002240 <test_19>:
    2240:	01300e13          	li	t2,19
    2244:	00000213          	li	s2,0
    2248:	00000093          	li	ra,0
    224c:	00000013          	nop
    2250:	fff00113          	li	s0,-1
    2254:	00000013          	nop
    2258:	06208463          	beq	ra,s0,22c0 <fail>
    225c:	00120213          	addi	s2,s2,1
    2260:	00200293          	li	s3,2
    2264:	fe5212e3          	bne	s2,s3,2248 <test_19+0x8>

00002268 <test_20>:
    2268:	01400e13          	li	t2,20
    226c:	00000213          	li	s2,0
    2270:	00000093          	li	ra,0
    2274:	00000013          	nop
    2278:	00000013          	nop
    227c:	fff00113          	li	s0,-1
    2280:	04208063          	beq	ra,s0,22c0 <fail>
    2284:	00120213          	addi	s2,s2,1
    2288:	00200293          	li	s3,2
    228c:	fe5212e3          	bne	s2,s3,2270 <test_20+0x8>

00002290 <test_21>:
    2290:	00100093          	li	ra,1
    2294:	00000a63          	b	22a8 <test_21+0x18>
    2298:	00108093          	addi	ra,ra,1
    229c:	00108093          	addi	ra,ra,1
    22a0:	00108093          	addi	ra,ra,1
    22a4:	00108093          	addi	ra,ra,1
    22a8:	00108093          	addi	ra,ra,1
    22ac:	00108093          	addi	ra,ra,1
    22b0:	00300e93          	li	t3,3
    22b4:	01500e13          	li	t2,21
    22b8:	01d09463          	bne	ra,t3,22c0 <fail>
    22bc:	01c01c63          	bne	zero,t2,22d4 <pass>

000022c0 <fail>:
    22c0:	000e0863          	beqz	t2,22d0 <fail+0x10>
    22c4:	001e1e13          	slli	t2,t2,0x1
    22c8:	001e6e13          	ori	t2,t2,1
    22cc:	51ee1073          	csrw	tohost,t2
    22d0:	00000063          	b	22d0 <fail+0x10>

000022d4 <pass>:
    22d4:	51e0d073          	csrwi	tohost,1
    22d8:	00000063          	b	22d8 <pass+0x4>
    22dc:	00000013          	nop
