
rv32ui-p-div:     file format elf32-littleriscv


Disassembly of section .text:

00002000 <_start>:
    2000:	01400093          	li	ra,20
    2004:	00600113          	li	s0,6
    2008:	0220c1b3          	div	s1,ra,s0
    200c:	00300e93          	li	t3,3
    2010:	00200e13          	li	t2,2
    2014:	0dd19463          	bne	s1,t3,20dc <fail>

00002018 <test_3>:
    2018:	fec00093          	li	ra,-20
    201c:	00600113          	li	s0,6
    2020:	0220c1b3          	div	s1,ra,s0
    2024:	ffd00e93          	li	t3,-3
    2028:	00300e13          	li	t2,3
    202c:	0bd19863          	bne	s1,t3,20dc <fail>

00002030 <test_4>:
    2030:	01400093          	li	ra,20
    2034:	ffa00113          	li	s0,-6
    2038:	0220c1b3          	div	s1,ra,s0
    203c:	ffd00e93          	li	t3,-3
    2040:	00400e13          	li	t2,4
    2044:	09d19c63          	bne	s1,t3,20dc <fail>

00002048 <test_5>:
    2048:	fec00093          	li	ra,-20
    204c:	ffa00113          	li	s0,-6
    2050:	0220c1b3          	div	s1,ra,s0
    2054:	00300e93          	li	t3,3
    2058:	00500e13          	li	t2,5
    205c:	09d19063          	bne	s1,t3,20dc <fail>

00002060 <test_6>:
    2060:	00000093          	li	ra,0
    2064:	00100113          	li	s0,1
    2068:	0220c1b3          	div	s1,ra,s0
    206c:	00000e93          	li	t3,0
    2070:	00600e13          	li	t2,6
    2074:	07d19463          	bne	s1,t3,20dc <fail>

00002078 <test_7>:
    2078:	00000093          	li	ra,0
    207c:	fff00113          	li	s0,-1
    2080:	0220c1b3          	div	s1,ra,s0
    2084:	00000e93          	li	t3,0
    2088:	00700e13          	li	t2,7
    208c:	05d19863          	bne	s1,t3,20dc <fail>

00002090 <test_8>:
    2090:	00000093          	li	ra,0
    2094:	00000113          	li	s0,0
    2098:	0220c1b3          	div	s1,ra,s0
    209c:	fff00e93          	li	t3,-1
    20a0:	00800e13          	li	t2,8
    20a4:	03d19c63          	bne	s1,t3,20dc <fail>

000020a8 <test_9>:
    20a8:	00100093          	li	ra,1
    20ac:	00000113          	li	s0,0
    20b0:	0220c1b3          	div	s1,ra,s0
    20b4:	fff00e93          	li	t3,-1
    20b8:	00900e13          	li	t2,9
    20bc:	03d19063          	bne	s1,t3,20dc <fail>

000020c0 <test_10>:
    20c0:	00000093          	li	ra,0
    20c4:	00000113          	li	s0,0
    20c8:	0220c1b3          	div	s1,ra,s0
    20cc:	fff00e93          	li	t3,-1
    20d0:	00a00e13          	li	t2,10
    20d4:	01d19463          	bne	s1,t3,20dc <fail>
    20d8:	01c01c63          	bne	zero,t2,20f0 <pass>

000020dc <fail>:
    20dc:	000e0863          	beqz	t2,20ec <fail+0x10>
    20e0:	001e1e13          	slli	t2,t2,0x1
    20e4:	001e6e13          	ori	t2,t2,1
    20e8:	51ee1073          	csrw	tohost,t2
    20ec:	00000063          	b	20ec <fail+0x10>

000020f0 <pass>:
    20f0:	51e0d073          	csrwi	tohost,1
    20f4:	00000063          	b	20f4 <pass+0x4>
    20f8:	00000013          	nop
    20fc:	00000013          	nop
