
cachetest.rv:     file format elf32-littleriscv


Disassembly of section .text:

00002000 <_start>:
    2000:	00080137          	lui	sp,0x80
    2004:	004000ef          	jal	2008 <main>

00002008 <main>:
    2008:	fe010113          	addi	sp,sp,-32 # 7ffe0 <x+0x7de0c>
    200c:	00112e23          	sw	ra,28(sp)
    2010:	00812c23          	sw	s0,24(sp)
    2014:	02010413          	addi	s0,sp,32
    2018:	00000797          	auipc	a5,0x0
    201c:	1b07a783          	lw	a5,432(a5) # 21c8 <_GLOBAL_OFFSET_TABLE_+0x4>
    2020:	00100713          	li	a4,1
    2024:	00e7a023          	sw	a4,0(a5)
    2028:	00100793          	li	a5,1
    202c:	fef42623          	sw	a5,-20(s0)
    2030:	0a40006f          	j	20d4 <main+0xcc>
    2034:	fec42783          	lw	a5,-20(s0)
    2038:	fff78793          	addi	a5,a5,-1
    203c:	00000717          	auipc	a4,0x0
    2040:	18c72703          	lw	a4,396(a4) # 21c8 <_GLOBAL_OFFSET_TABLE_+0x4>
    2044:	00279793          	slli	a5,a5,0x2
    2048:	00f707b3          	add	a5,a4,a5
    204c:	0007a783          	lw	a5,0(a5)
    2050:	4017d713          	srai	a4,a5,0x1
    2054:	000047b7          	lui	a5,0x4
    2058:	fff78793          	addi	a5,a5,-1 # 3fff <x+0x1e2b>
    205c:	00f77733          	and	a4,a4,a5
    2060:	fec42783          	lw	a5,-20(s0)
    2064:	fff78793          	addi	a5,a5,-1
    2068:	00000697          	auipc	a3,0x0
    206c:	1606a683          	lw	a3,352(a3) # 21c8 <_GLOBAL_OFFSET_TABLE_+0x4>
    2070:	00279793          	slli	a5,a5,0x2
    2074:	00f687b3          	add	a5,a3,a5
    2078:	0007a783          	lw	a5,0(a5)
    207c:	0017f693          	andi	a3,a5,1
    2080:	fec42783          	lw	a5,-20(s0)
    2084:	fff78793          	addi	a5,a5,-1
    2088:	00000617          	auipc	a2,0x0
    208c:	14062603          	lw	a2,320(a2) # 21c8 <_GLOBAL_OFFSET_TABLE_+0x4>
    2090:	00279793          	slli	a5,a5,0x2
    2094:	00f607b3          	add	a5,a2,a5
    2098:	0007a783          	lw	a5,0(a5)
    209c:	0027f793          	andi	a5,a5,2
    20a0:	4017d793          	srai	a5,a5,0x1
    20a4:	00f6c7b3          	xor	a5,a3,a5
    20a8:	00e79793          	slli	a5,a5,0xe
    20ac:	00f76733          	or	a4,a4,a5
    20b0:	00000697          	auipc	a3,0x0
    20b4:	1186a683          	lw	a3,280(a3) # 21c8 <_GLOBAL_OFFSET_TABLE_+0x4>
    20b8:	fec42783          	lw	a5,-20(s0)
    20bc:	00279793          	slli	a5,a5,0x2
    20c0:	00f687b3          	add	a5,a3,a5
    20c4:	00e7a023          	sw	a4,0(a5)
    20c8:	fec42783          	lw	a5,-20(s0)
    20cc:	00178793          	addi	a5,a5,1
    20d0:	fef42623          	sw	a5,-20(s0)
    20d4:	fec42703          	lw	a4,-20(s0)
    20d8:	000087b7          	lui	a5,0x8
    20dc:	ffe78793          	addi	a5,a5,-2 # 7ffe <x+0x5e2a>
    20e0:	f4e7dae3          	ble	a4,a5,2034 <main+0x2c>
    20e4:	fe042423          	sw	zero,-24(s0)
    20e8:	fe042623          	sw	zero,-20(s0)
    20ec:	05c0006f          	j	2148 <main+0x140>
    20f0:	00000717          	auipc	a4,0x0
    20f4:	0d872703          	lw	a4,216(a4) # 21c8 <_GLOBAL_OFFSET_TABLE_+0x4>
    20f8:	fec42783          	lw	a5,-20(s0)
    20fc:	00279793          	slli	a5,a5,0x2
    2100:	00f707b3          	add	a5,a4,a5
    2104:	0007a703          	lw	a4,0(a5)
    2108:	000087b7          	lui	a5,0x8
    210c:	ffe78693          	addi	a3,a5,-2 # 7ffe <x+0x5e2a>
    2110:	fec42783          	lw	a5,-20(s0)
    2114:	40f687b3          	sub	a5,a3,a5
    2118:	00000697          	auipc	a3,0x0
    211c:	0b06a683          	lw	a3,176(a3) # 21c8 <_GLOBAL_OFFSET_TABLE_+0x4>
    2120:	00279793          	slli	a5,a5,0x2
    2124:	00f687b3          	add	a5,a3,a5
    2128:	0007a783          	lw	a5,0(a5)
    212c:	00f707b3          	add	a5,a4,a5
    2130:	fe842703          	lw	a4,-24(s0)
    2134:	00f707b3          	add	a5,a4,a5
    2138:	fef42423          	sw	a5,-24(s0)
    213c:	fec42783          	lw	a5,-20(s0)
    2140:	00178793          	addi	a5,a5,1
    2144:	fef42623          	sw	a5,-20(s0)
    2148:	fec42703          	lw	a4,-20(s0)
    214c:	000087b7          	lui	a5,0x8
    2150:	ffe78793          	addi	a5,a5,-2 # 7ffe <x+0x5e2a>
    2154:	f8e7dee3          	ble	a4,a5,20f0 <main+0xe8>
    2158:	fe842783          	lw	a5,-24(s0)
    215c:	3fff85b7          	lui	a1,0x3fff8
    2160:	00078513          	mv	a0,a5
    2164:	028000ef          	jal	218c <assert_equals>
    2168:	00050793          	mv	a5,a0
    216c:	00078863          	beqz	a5,217c <main+0x174>
    2170:	00100793          	li	a5,1
    2174:	51e79073          	csrw	0x51e,a5
    2178:	00c0006f          	j	2184 <main+0x17c>
    217c:	00200793          	li	a5,2
    2180:	51e79073          	csrw	0x51e,a5
    2184:	00000013          	nop
    2188:	ffdff06f          	j	2184 <main+0x17c>

0000218c <assert_equals>:
    218c:	fe010113          	addi	sp,sp,-32
    2190:	00812e23          	sw	s0,28(sp)
    2194:	02010413          	addi	s0,sp,32
    2198:	fea42623          	sw	a0,-20(s0)
    219c:	feb42423          	sw	a1,-24(s0)
    21a0:	fec42703          	lw	a4,-20(s0)
    21a4:	fe842783          	lw	a5,-24(s0)
    21a8:	40f707b3          	sub	a5,a4,a5
    21ac:	0017b793          	seqz	a5,a5
    21b0:	0ff7f793          	andi	a5,a5,255
    21b4:	00078513          	mv	a0,a5
    21b8:	01c12403          	lw	s0,28(sp)
    21bc:	02010113          	addi	sp,sp,32
    21c0:	00008067          	ret
