
replace.rv:     file format elf32-littleriscv


Disassembly of section .text:

00002000 <_start>:
    2000:	00080137          	lui	sp,0x80
    2004:	004000ef          	jal	2008 <main>

00002008 <main>:
    2008:	fe010113          	addi	sp,sp,-32 # 7ffe0 <y+0x7cc44>
    200c:	00112e23          	sw	ra,28(sp)
    2010:	00812c23          	sw	s0,24(sp)
    2014:	02010413          	addi	s0,sp,32
    2018:	fe042623          	sw	zero,-20(s0)
    201c:	0300006f          	j	204c <main+0x44>
    2020:	fec42783          	lw	a5,-20(s0)
    2024:	00178713          	addi	a4,a5,1
    2028:	00000697          	auipc	a3,0x0
    202c:	3646a683          	lw	a3,868(a3) # 238c <_GLOBAL_OFFSET_TABLE_+0x4>
    2030:	fec42783          	lw	a5,-20(s0)
    2034:	00279793          	slli	a5,a5,0x2
    2038:	00f687b3          	add	a5,a3,a5
    203c:	00e7a023          	sw	a4,0(a5)
    2040:	fec42783          	lw	a5,-20(s0)
    2044:	00178793          	addi	a5,a5,1
    2048:	fef42623          	sw	a5,-20(s0)
    204c:	fec42703          	lw	a4,-20(s0)
    2050:	3ff00793          	li	a5,1023
    2054:	fce7d6e3          	ble	a4,a5,2020 <main+0x18>
    2058:	fe042623          	sw	zero,-20(s0)
    205c:	0980006f          	j	20f4 <main+0xec>
    2060:	00000717          	auipc	a4,0x0
    2064:	33072703          	lw	a4,816(a4) # 2390 <_GLOBAL_OFFSET_TABLE_+0x8>
    2068:	fec42783          	lw	a5,-20(s0)
    206c:	00279793          	slli	a5,a5,0x2
    2070:	00f707b3          	add	a5,a4,a5
    2074:	0007a023          	sw	zero,0(a5)
    2078:	fe042423          	sw	zero,-24(s0)
    207c:	05c0006f          	j	20d8 <main+0xd0>
    2080:	00000717          	auipc	a4,0x0
    2084:	31072703          	lw	a4,784(a4) # 2390 <_GLOBAL_OFFSET_TABLE_+0x8>
    2088:	fec42783          	lw	a5,-20(s0)
    208c:	00279793          	slli	a5,a5,0x2
    2090:	00f707b3          	add	a5,a4,a5
    2094:	0007a703          	lw	a4,0(a5)
    2098:	00000697          	auipc	a3,0x0
    209c:	2f46a683          	lw	a3,756(a3) # 238c <_GLOBAL_OFFSET_TABLE_+0x4>
    20a0:	fe842783          	lw	a5,-24(s0)
    20a4:	00279793          	slli	a5,a5,0x2
    20a8:	00f687b3          	add	a5,a3,a5
    20ac:	0007a783          	lw	a5,0(a5)
    20b0:	00f70733          	add	a4,a4,a5
    20b4:	00000697          	auipc	a3,0x0
    20b8:	2dc6a683          	lw	a3,732(a3) # 2390 <_GLOBAL_OFFSET_TABLE_+0x8>
    20bc:	fec42783          	lw	a5,-20(s0)
    20c0:	00279793          	slli	a5,a5,0x2
    20c4:	00f687b3          	add	a5,a3,a5
    20c8:	00e7a023          	sw	a4,0(a5)
    20cc:	fe842783          	lw	a5,-24(s0)
    20d0:	00178793          	addi	a5,a5,1
    20d4:	fef42423          	sw	a5,-24(s0)
    20d8:	fec42783          	lw	a5,-20(s0)
    20dc:	00178713          	addi	a4,a5,1
    20e0:	fe842783          	lw	a5,-24(s0)
    20e4:	f8e7cee3          	blt	a5,a4,2080 <main+0x78>
    20e8:	fec42783          	lw	a5,-20(s0)
    20ec:	00478793          	addi	a5,a5,4
    20f0:	fef42623          	sw	a5,-20(s0)
    20f4:	fec42703          	lw	a4,-20(s0)
    20f8:	3ff00793          	li	a5,1023
    20fc:	f6e7d2e3          	ble	a4,a5,2060 <main+0x58>
    2100:	00100793          	li	a5,1
    2104:	fef42623          	sw	a5,-20(s0)
    2108:	0980006f          	j	21a0 <main+0x198>
    210c:	00000717          	auipc	a4,0x0
    2110:	28472703          	lw	a4,644(a4) # 2390 <_GLOBAL_OFFSET_TABLE_+0x8>
    2114:	fec42783          	lw	a5,-20(s0)
    2118:	00279793          	slli	a5,a5,0x2
    211c:	00f707b3          	add	a5,a4,a5
    2120:	0007a023          	sw	zero,0(a5)
    2124:	fe042423          	sw	zero,-24(s0)
    2128:	05c0006f          	j	2184 <main+0x17c>
    212c:	00000717          	auipc	a4,0x0
    2130:	26472703          	lw	a4,612(a4) # 2390 <_GLOBAL_OFFSET_TABLE_+0x8>
    2134:	fec42783          	lw	a5,-20(s0)
    2138:	00279793          	slli	a5,a5,0x2
    213c:	00f707b3          	add	a5,a4,a5
    2140:	0007a703          	lw	a4,0(a5)
    2144:	00000697          	auipc	a3,0x0
    2148:	2486a683          	lw	a3,584(a3) # 238c <_GLOBAL_OFFSET_TABLE_+0x4>
    214c:	fe842783          	lw	a5,-24(s0)
    2150:	00279793          	slli	a5,a5,0x2
    2154:	00f687b3          	add	a5,a3,a5
    2158:	0007a783          	lw	a5,0(a5)
    215c:	00f70733          	add	a4,a4,a5
    2160:	00000697          	auipc	a3,0x0
    2164:	2306a683          	lw	a3,560(a3) # 2390 <_GLOBAL_OFFSET_TABLE_+0x8>
    2168:	fec42783          	lw	a5,-20(s0)
    216c:	00279793          	slli	a5,a5,0x2
    2170:	00f687b3          	add	a5,a3,a5
    2174:	00e7a023          	sw	a4,0(a5)
    2178:	fe842783          	lw	a5,-24(s0)
    217c:	00178793          	addi	a5,a5,1
    2180:	fef42423          	sw	a5,-24(s0)
    2184:	fec42783          	lw	a5,-20(s0)
    2188:	00178713          	addi	a4,a5,1
    218c:	fe842783          	lw	a5,-24(s0)
    2190:	f8e7cee3          	blt	a5,a4,212c <main+0x124>
    2194:	fec42783          	lw	a5,-20(s0)
    2198:	00478793          	addi	a5,a5,4
    219c:	fef42623          	sw	a5,-20(s0)
    21a0:	fec42703          	lw	a4,-20(s0)
    21a4:	3ff00793          	li	a5,1023
    21a8:	f6e7d2e3          	ble	a4,a5,210c <main+0x104>
    21ac:	00200793          	li	a5,2
    21b0:	fef42623          	sw	a5,-20(s0)
    21b4:	0980006f          	j	224c <main+0x244>
    21b8:	00000717          	auipc	a4,0x0
    21bc:	1d872703          	lw	a4,472(a4) # 2390 <_GLOBAL_OFFSET_TABLE_+0x8>
    21c0:	fec42783          	lw	a5,-20(s0)
    21c4:	00279793          	slli	a5,a5,0x2
    21c8:	00f707b3          	add	a5,a4,a5
    21cc:	0007a023          	sw	zero,0(a5)
    21d0:	fe042423          	sw	zero,-24(s0)
    21d4:	05c0006f          	j	2230 <main+0x228>
    21d8:	00000717          	auipc	a4,0x0
    21dc:	1b872703          	lw	a4,440(a4) # 2390 <_GLOBAL_OFFSET_TABLE_+0x8>
    21e0:	fec42783          	lw	a5,-20(s0)
    21e4:	00279793          	slli	a5,a5,0x2
    21e8:	00f707b3          	add	a5,a4,a5
    21ec:	0007a703          	lw	a4,0(a5)
    21f0:	00000697          	auipc	a3,0x0
    21f4:	19c6a683          	lw	a3,412(a3) # 238c <_GLOBAL_OFFSET_TABLE_+0x4>
    21f8:	fe842783          	lw	a5,-24(s0)
    21fc:	00279793          	slli	a5,a5,0x2
    2200:	00f687b3          	add	a5,a3,a5
    2204:	0007a783          	lw	a5,0(a5)
    2208:	00f70733          	add	a4,a4,a5
    220c:	00000697          	auipc	a3,0x0
    2210:	1846a683          	lw	a3,388(a3) # 2390 <_GLOBAL_OFFSET_TABLE_+0x8>
    2214:	fec42783          	lw	a5,-20(s0)
    2218:	00279793          	slli	a5,a5,0x2
    221c:	00f687b3          	add	a5,a3,a5
    2220:	00e7a023          	sw	a4,0(a5)
    2224:	fe842783          	lw	a5,-24(s0)
    2228:	00178793          	addi	a5,a5,1
    222c:	fef42423          	sw	a5,-24(s0)
    2230:	fec42783          	lw	a5,-20(s0)
    2234:	00178713          	addi	a4,a5,1
    2238:	fe842783          	lw	a5,-24(s0)
    223c:	f8e7cee3          	blt	a5,a4,21d8 <main+0x1d0>
    2240:	fec42783          	lw	a5,-20(s0)
    2244:	00478793          	addi	a5,a5,4
    2248:	fef42623          	sw	a5,-20(s0)
    224c:	fec42703          	lw	a4,-20(s0)
    2250:	3ff00793          	li	a5,1023
    2254:	f6e7d2e3          	ble	a4,a5,21b8 <main+0x1b0>
    2258:	00300793          	li	a5,3
    225c:	fef42623          	sw	a5,-20(s0)
    2260:	0980006f          	j	22f8 <main+0x2f0>
    2264:	00000717          	auipc	a4,0x0
    2268:	12c72703          	lw	a4,300(a4) # 2390 <_GLOBAL_OFFSET_TABLE_+0x8>
    226c:	fec42783          	lw	a5,-20(s0)
    2270:	00279793          	slli	a5,a5,0x2
    2274:	00f707b3          	add	a5,a4,a5
    2278:	0007a023          	sw	zero,0(a5)
    227c:	fe042423          	sw	zero,-24(s0)
    2280:	05c0006f          	j	22dc <main+0x2d4>
    2284:	00000717          	auipc	a4,0x0
    2288:	10c72703          	lw	a4,268(a4) # 2390 <_GLOBAL_OFFSET_TABLE_+0x8>
    228c:	fec42783          	lw	a5,-20(s0)
    2290:	00279793          	slli	a5,a5,0x2
    2294:	00f707b3          	add	a5,a4,a5
    2298:	0007a703          	lw	a4,0(a5)
    229c:	00000697          	auipc	a3,0x0
    22a0:	0f06a683          	lw	a3,240(a3) # 238c <_GLOBAL_OFFSET_TABLE_+0x4>
    22a4:	fe842783          	lw	a5,-24(s0)
    22a8:	00279793          	slli	a5,a5,0x2
    22ac:	00f687b3          	add	a5,a3,a5
    22b0:	0007a783          	lw	a5,0(a5)
    22b4:	00f70733          	add	a4,a4,a5
    22b8:	00000697          	auipc	a3,0x0
    22bc:	0d86a683          	lw	a3,216(a3) # 2390 <_GLOBAL_OFFSET_TABLE_+0x8>
    22c0:	fec42783          	lw	a5,-20(s0)
    22c4:	00279793          	slli	a5,a5,0x2
    22c8:	00f687b3          	add	a5,a3,a5
    22cc:	00e7a023          	sw	a4,0(a5)
    22d0:	fe842783          	lw	a5,-24(s0)
    22d4:	00178793          	addi	a5,a5,1
    22d8:	fef42423          	sw	a5,-24(s0)
    22dc:	fec42783          	lw	a5,-20(s0)
    22e0:	00178713          	addi	a4,a5,1
    22e4:	fe842783          	lw	a5,-24(s0)
    22e8:	f8e7cee3          	blt	a5,a4,2284 <main+0x27c>
    22ec:	fec42783          	lw	a5,-20(s0)
    22f0:	00478793          	addi	a5,a5,4
    22f4:	fef42623          	sw	a5,-20(s0)
    22f8:	fec42703          	lw	a4,-20(s0)
    22fc:	3ff00793          	li	a5,1023
    2300:	f6e7d2e3          	ble	a4,a5,2264 <main+0x25c>
    2304:	00000717          	auipc	a4,0x0
    2308:	08c72703          	lw	a4,140(a4) # 2390 <_GLOBAL_OFFSET_TABLE_+0x8>
    230c:	000017b7          	lui	a5,0x1
    2310:	00f707b3          	add	a5,a4,a5
    2314:	ffc7a783          	lw	a5,-4(a5) # ffc <_start-0x1004>
    2318:	00078713          	mv	a4,a5
    231c:	000807b7          	lui	a5,0x80
    2320:	20078593          	addi	a1,a5,512 # 80200 <y+0x7ce64>
    2324:	00070513          	mv	a0,a4
    2328:	028000ef          	jal	2350 <assert_equals>
    232c:	00050793          	mv	a5,a0
    2330:	00078863          	beqz	a5,2340 <main+0x338>
    2334:	00100793          	li	a5,1
    2338:	51e79073          	csrw	0x51e,a5
    233c:	00c0006f          	j	2348 <main+0x340>
    2340:	00200793          	li	a5,2
    2344:	51e79073          	csrw	0x51e,a5
    2348:	00000013          	nop
    234c:	ffdff06f          	j	2348 <main+0x340>

00002350 <assert_equals>:
    2350:	fe010113          	addi	sp,sp,-32
    2354:	00812e23          	sw	s0,28(sp)
    2358:	02010413          	addi	s0,sp,32
    235c:	fea42623          	sw	a0,-20(s0)
    2360:	feb42423          	sw	a1,-24(s0)
    2364:	fec42703          	lw	a4,-20(s0)
    2368:	fe842783          	lw	a5,-24(s0)
    236c:	40f707b3          	sub	a5,a4,a5
    2370:	0017b793          	seqz	a5,a5
    2374:	0ff7f793          	andi	a5,a5,255
    2378:	00078513          	mv	a0,a5
    237c:	01c12403          	lw	s0,28(sp)
    2380:	02010113          	addi	sp,sp,32
    2384:	00008067          	ret

Disassembly of section .bss:

0000239c <x>:
	...

0000339c <y>:
	...
