
sum.rv:     file format elf32-littleriscv


Disassembly of section .text:

00002000 <_start>:
    2000:	00080137          	lui	sp,0x80
    2004:	004000ef          	jal	2008 <main>

00002008 <main>:
    2008:	fe010113          	addi	sp,sp,-32 # 7ffe0 <y+0x7ce48>
    200c:	00112e23          	sw	ra,28(sp)
    2010:	00812c23          	sw	s0,24(sp)
    2014:	02010413          	addi	s0,sp,32
    2018:	fe042623          	sw	zero,-20(s0)
    201c:	0300006f          	j	204c <main+0x44>
    2020:	fec42783          	lw	a5,-20(s0)
    2024:	00178713          	addi	a4,a5,1
    2028:	00000697          	auipc	a3,0x0
    202c:	1606a683          	lw	a3,352(a3) # 2188 <_GLOBAL_OFFSET_TABLE_+0x4>
    2030:	fec42783          	lw	a5,-20(s0)
    2034:	00279793          	slli	a5,a5,0x2
    2038:	00f687b3          	add	a5,a3,a5
    203c:	00e7a023          	sw	a4,0(a5)
    2040:	fec42783          	lw	a5,-20(s0)
    2044:	00178793          	addi	a5,a5,1
    2048:	fef42623          	sw	a5,-20(s0)
    204c:	fec42703          	lw	a4,-20(s0)
    2050:	3ff00793          	li	a5,1023
    2054:	fce7d6e3          	ble	a4,a5,2020 <main+0x18>
    2058:	fe042623          	sw	zero,-20(s0)
    205c:	0980006f          	j	20f4 <main+0xec>
    2060:	00000717          	auipc	a4,0x0
    2064:	12c72703          	lw	a4,300(a4) # 218c <_GLOBAL_OFFSET_TABLE_+0x8>
    2068:	fec42783          	lw	a5,-20(s0)
    206c:	00279793          	slli	a5,a5,0x2
    2070:	00f707b3          	add	a5,a4,a5
    2074:	0007a023          	sw	zero,0(a5)
    2078:	fe042423          	sw	zero,-24(s0)
    207c:	05c0006f          	j	20d8 <main+0xd0>
    2080:	00000717          	auipc	a4,0x0
    2084:	10c72703          	lw	a4,268(a4) # 218c <_GLOBAL_OFFSET_TABLE_+0x8>
    2088:	fec42783          	lw	a5,-20(s0)
    208c:	00279793          	slli	a5,a5,0x2
    2090:	00f707b3          	add	a5,a4,a5
    2094:	0007a703          	lw	a4,0(a5)
    2098:	00000697          	auipc	a3,0x0
    209c:	0f06a683          	lw	a3,240(a3) # 2188 <_GLOBAL_OFFSET_TABLE_+0x4>
    20a0:	fe842783          	lw	a5,-24(s0)
    20a4:	00279793          	slli	a5,a5,0x2
    20a8:	00f687b3          	add	a5,a3,a5
    20ac:	0007a783          	lw	a5,0(a5)
    20b0:	00f70733          	add	a4,a4,a5
    20b4:	00000697          	auipc	a3,0x0
    20b8:	0d86a683          	lw	a3,216(a3) # 218c <_GLOBAL_OFFSET_TABLE_+0x8>
    20bc:	fec42783          	lw	a5,-20(s0)
    20c0:	00279793          	slli	a5,a5,0x2
    20c4:	00f687b3          	add	a5,a3,a5
    20c8:	00e7a023          	sw	a4,0(a5)
    20cc:	fe842783          	lw	a5,-24(s0)
    20d0:	00178793          	addi	a5,a5,1
    20d4:	fef42423          	sw	a5,-24(s0)
    20d8:	fec42783          	lw	a5,-20(s0)
    20dc:	00178713          	addi	a4,a5,1
    20e0:	fe842783          	lw	a5,-24(s0)
    20e4:	f8e7cee3          	blt	a5,a4,2080 <main+0x78>
    20e8:	fec42783          	lw	a5,-20(s0)
    20ec:	00178793          	addi	a5,a5,1
    20f0:	fef42623          	sw	a5,-20(s0)
    20f4:	fec42703          	lw	a4,-20(s0)
    20f8:	3ff00793          	li	a5,1023
    20fc:	f6e7d2e3          	ble	a4,a5,2060 <main+0x58>
    2100:	00000717          	auipc	a4,0x0
    2104:	08c72703          	lw	a4,140(a4) # 218c <_GLOBAL_OFFSET_TABLE_+0x8>
    2108:	000017b7          	lui	a5,0x1
    210c:	00f707b3          	add	a5,a4,a5
    2110:	ffc7a783          	lw	a5,-4(a5) # ffc <_start-0x1004>
    2114:	00078713          	mv	a4,a5
    2118:	000807b7          	lui	a5,0x80
    211c:	20078593          	addi	a1,a5,512 # 80200 <y+0x7d068>
    2120:	00070513          	mv	a0,a4
    2124:	028000ef          	jal	214c <assert_equals>
    2128:	00050793          	mv	a5,a0
    212c:	00078863          	beqz	a5,213c <main+0x134>
    2130:	00100793          	li	a5,1
    2134:	51e79073          	csrw	0x51e,a5
    2138:	00c0006f          	j	2144 <main+0x13c>
    213c:	00200793          	li	a5,2
    2140:	51e79073          	csrw	0x51e,a5
    2144:	00000013          	nop
    2148:	ffdff06f          	j	2144 <main+0x13c>

0000214c <assert_equals>:
    214c:	fe010113          	addi	sp,sp,-32
    2150:	00812e23          	sw	s0,28(sp)
    2154:	02010413          	addi	s0,sp,32
    2158:	fea42623          	sw	a0,-20(s0)
    215c:	feb42423          	sw	a1,-24(s0)
    2160:	fec42703          	lw	a4,-20(s0)
    2164:	fe842783          	lw	a5,-24(s0)
    2168:	40f707b3          	sub	a5,a4,a5
    216c:	0017b793          	seqz	a5,a5
    2170:	0ff7f793          	andi	a5,a5,255
    2174:	00078513          	mv	a0,a5
    2178:	01c12403          	lw	s0,28(sp)
    217c:	02010113          	addi	sp,sp,32
    2180:	00008067          	ret
